
sobel.elf:     file format elf32-littlenios2
sobel.elf
architecture: nios2:r1, flags 0x00000112:
EXEC_P, HAS_SYMS, D_PAGED
start address 0x00000244

Program Header:
    LOAD off    0x00001000 vaddr 0x00000000 paddr 0x00000000 align 2**12
         filesz 0x00000020 memsz 0x00000020 flags r-x
    LOAD off    0x00001020 vaddr 0x00000020 paddr 0x00000020 align 2**12
         filesz 0x000118d8 memsz 0x000118d8 flags r-x
    LOAD off    0x000128f8 vaddr 0x000118f8 paddr 0x000134e4 align 2**12
         filesz 0x00001bec memsz 0x00001bec flags rw-
    LOAD off    0x000150d0 vaddr 0x000150d0 paddr 0x000150d0 align 2**12
         filesz 0x00000000 memsz 0x000001c0 flags rw-

Sections:
Idx Name          Size      VMA       LMA       File off  Algn
  0 .entry        00000020  00000000  00000000  00001000  2**5
                  CONTENTS, ALLOC, LOAD, READONLY, CODE
  1 .exceptions   00000224  00000020  00000020  00001020  2**2
                  CONTENTS, ALLOC, LOAD, READONLY, CODE
  2 .text         00010f10  00000244  00000244  00001244  2**2
                  CONTENTS, ALLOC, LOAD, READONLY, CODE
  3 .rodata       000007a4  00011154  00011154  00012154  2**2
                  CONTENTS, ALLOC, LOAD, READONLY, DATA
  4 .rwdata       00001bec  000118f8  000134e4  000128f8  2**2
                  CONTENTS, ALLOC, LOAD, DATA, SMALL_DATA
  5 .bss          000001c0  000150d0  000150d0  000150d0  2**2
                  ALLOC, SMALL_DATA
  6 .sdram_ctrl   00000000  00015290  00015290  000144e4  2**0
                  CONTENTS
  7 .comment      00000023  00000000  00000000  000144e4  2**0
                  CONTENTS, READONLY
  8 .debug_aranges 00001050  00000000  00000000  00014508  2**3
                  CONTENTS, READONLY, DEBUGGING
  9 .debug_info   00026a1d  00000000  00000000  00015558  2**0
                  CONTENTS, READONLY, DEBUGGING
 10 .debug_abbrev 00009c35  00000000  00000000  0003bf75  2**0
                  CONTENTS, READONLY, DEBUGGING
 11 .debug_line   0000c605  00000000  00000000  00045baa  2**0
                  CONTENTS, READONLY, DEBUGGING
 12 .debug_frame  0000263c  00000000  00000000  000521b0  2**2
                  CONTENTS, READONLY, DEBUGGING
 13 .debug_str    00003e8e  00000000  00000000  000547ec  2**0
                  CONTENTS, READONLY, DEBUGGING
 14 .debug_loc    000190fd  00000000  00000000  0005867a  2**0
                  CONTENTS, READONLY, DEBUGGING
 15 .debug_alt_sim_info 00000050  00000000  00000000  00071778  2**2
                  CONTENTS, READONLY, DEBUGGING
 16 .debug_ranges 00001980  00000000  00000000  000717c8  2**3
                  CONTENTS, READONLY, DEBUGGING
 17 .thread_model 00000003  00000000  00000000  00076d12  2**0
                  CONTENTS, READONLY
 18 .cpu          0000000c  00000000  00000000  00076d15  2**0
                  CONTENTS, READONLY
 19 .qsys         00000001  00000000  00000000  00076d21  2**0
                  CONTENTS, READONLY
 20 .simulation_enabled 00000001  00000000  00000000  00076d22  2**0
                  CONTENTS, READONLY
 21 .sysid_hash   00000004  00000000  00000000  00076d23  2**0
                  CONTENTS, READONLY
 22 .sysid_base   00000004  00000000  00000000  00076d27  2**0
                  CONTENTS, READONLY
 23 .sysid_time   00000004  00000000  00000000  00076d2b  2**0
                  CONTENTS, READONLY
 24 .stderr_dev   00000009  00000000  00000000  00076d2f  2**0
                  CONTENTS, READONLY
 25 .stdin_dev    00000009  00000000  00000000  00076d38  2**0
                  CONTENTS, READONLY
 26 .stdout_dev   00000009  00000000  00000000  00076d41  2**0
                  CONTENTS, READONLY
 27 .sopc_system_name 0000000b  00000000  00000000  00076d4a  2**0
                  CONTENTS, READONLY
 28 .quartus_project_dir 0000004d  00000000  00000000  00076d55  2**0
                  CONTENTS, READONLY
 29 .jdi          00005a3e  00000000  00000000  00076da2  2**0
                  CONTENTS, READONLY
 30 .sopcinfo     000723e4  00000000  00000000  0007c7e0  2**0
                  CONTENTS, READONLY
SYMBOL TABLE:
00000000 l    d  .entry	00000000 .entry
00000020 l    d  .exceptions	00000000 .exceptions
00000244 l    d  .text	00000000 .text
00011154 l    d  .rodata	00000000 .rodata
000118f8 l    d  .rwdata	00000000 .rwdata
000150d0 l    d  .bss	00000000 .bss
00015290 l    d  .sdram_ctrl	00000000 .sdram_ctrl
00000000 l    d  .comment	00000000 .comment
00000000 l    d  .debug_aranges	00000000 .debug_aranges
00000000 l    d  .debug_info	00000000 .debug_info
00000000 l    d  .debug_abbrev	00000000 .debug_abbrev
00000000 l    d  .debug_line	00000000 .debug_line
00000000 l    d  .debug_frame	00000000 .debug_frame
00000000 l    d  .debug_str	00000000 .debug_str
00000000 l    d  .debug_loc	00000000 .debug_loc
00000000 l    d  .debug_alt_sim_info	00000000 .debug_alt_sim_info
00000000 l    d  .debug_ranges	00000000 .debug_ranges
00000000 l    df *ABS*	00000000 /home/deremos/Documents/Master/EmbHard/embHard/labo4/mse_demo/software/sobel_bsp//obj/HAL/src/crt0.o
0000027c l       .text	00000000 alt_after_alt_main
00000000 l    df *ABS*	00000000 alt_irq_handler.c
00000000 l    df *ABS*	00000000 alt_instruction_exception_entry.c
00000000 l    df *ABS*	00000000 camera.c
00000000 l    df *ABS*	00000000 dipswitch.c
00000000 l    df *ABS*	00000000 grayscale.c
00000000 l    df *ABS*	00000000 i2c.c
00000000 l    df *ABS*	00000000 lcd_simple.c
00000000 l    df *ABS*	00000000 main.c
00000000 l    df *ABS*	00000000 sobel.c
00000000 l    df *ABS*	00000000 vga.c
00000000 l    df *ABS*	00000000 lib2-divmod.c
00000000 l    df *ABS*	00000000 lib2-divtable.c
00000000 l    df *ABS*	00000000 malloc.c
00000000 l    df *ABS*	00000000 mallocr.c
00000000 l    df *ABS*	00000000 printf.c
00000000 l    df *ABS*	00000000 puts.c
00000000 l    df *ABS*	00000000 sbrkr.c
00000000 l    df *ABS*	00000000 strlen.c
00000000 l    df *ABS*	00000000 vfprintf.c
00011646 l     O .rodata	00000010 zeroes.4404
00004bf4 l     F .text	000000bc __sbprintf
00011656 l     O .rodata	00000010 blanks.4403
00000000 l    df *ABS*	00000000 wsetup.c
00000000 l    df *ABS*	00000000 dtoa.c
00004e04 l     F .text	00000200 quorem
00000000 l    df *ABS*	00000000 fflush.c
00000000 l    df *ABS*	00000000 findfp.c
00006934 l     F .text	00000008 __fp_unlock
00006948 l     F .text	0000019c __sinit.part.1
00006ae4 l     F .text	00000008 __fp_lock
00000000 l    df *ABS*	00000000 mallocr.c
00000000 l    df *ABS*	00000000 fvwrite.c
00000000 l    df *ABS*	00000000 fwalk.c
00000000 l    df *ABS*	00000000 impure.c
00011e00 l     O .rwdata	00000424 impure_data
00000000 l    df *ABS*	00000000 int_errno.c
00000000 l    df *ABS*	00000000 locale.c
00012244 l     O .rwdata	00000020 lc_ctype_charset
00012224 l     O .rwdata	00000020 lc_message_charset
00012264 l     O .rwdata	00000038 lconv
00000000 l    df *ABS*	00000000 makebuf.c
00000000 l    df *ABS*	00000000 memchr.c
00000000 l    df *ABS*	00000000 memcpy.c
00000000 l    df *ABS*	00000000 memmove.c
00000000 l    df *ABS*	00000000 memset.c
00000000 l    df *ABS*	00000000 mprec.c
00011688 l     O .rodata	0000000c p05.2768
00000000 l    df *ABS*	00000000 mallocr.c
00000000 l    df *ABS*	00000000 s_fpclassify.c
00000000 l    df *ABS*	00000000 stdio.c
00000000 l    df *ABS*	00000000 strcmp.c
00000000 l    df *ABS*	00000000 vfprintf.c
00009680 l     F .text	000000fc __sprint_r.part.0
000117bc l     O .rodata	00000010 blanks.4348
000117ac l     O .rodata	00000010 zeroes.4349
0000ac0c l     F .text	000000bc __sbprintf
00000000 l    df *ABS*	00000000 writer.c
00000000 l    df *ABS*	00000000 closer.c
00000000 l    df *ABS*	00000000 mallocr.c
00000000 l    df *ABS*	00000000 fclose.c
00000000 l    df *ABS*	00000000 fputwc.c
00000000 l    df *ABS*	00000000 fstatr.c
00000000 l    df *ABS*	00000000 isattyr.c
00000000 l    df *ABS*	00000000 lseekr.c
00000000 l    df *ABS*	00000000 readr.c
00000000 l    df *ABS*	00000000 wbuf.c
00000000 l    df *ABS*	00000000 wcrtomb.c
00000000 l    df *ABS*	00000000 wctomb_r.c
00000000 l    df *ABS*	00000000 libgcc2.c
00000000 l    df *ABS*	00000000 libgcc2.c
00000000 l    df *ABS*	00000000 adddf3.c
00000000 l    df *ABS*	00000000 divdf3.c
00000000 l    df *ABS*	00000000 eqdf2.c
00000000 l    df *ABS*	00000000 gedf2.c
00000000 l    df *ABS*	00000000 ledf2.c
00000000 l    df *ABS*	00000000 muldf3.c
00000000 l    df *ABS*	00000000 subdf3.c
00000000 l    df *ABS*	00000000 fixdfsi.c
00000000 l    df *ABS*	00000000 floatsidf.c
00000000 l    df *ABS*	00000000 floatunsidf.c
00000000 l    df *ABS*	00000000 libgcc2.c
00000000 l    df *ABS*	00000000 libgcc2.c
00000000 l    df *ABS*	00000000 alt_close.c
0000e714 l     F .text	0000003c alt_get_errno
00000000 l    df *ABS*	00000000 alt_dev.c
0000e820 l     F .text	0000002c alt_dev_null_write
00000000 l    df *ABS*	00000000 alt_errno.c
00000000 l    df *ABS*	00000000 alt_fstat.c
0000e84c l     F .text	0000003c alt_get_errno
00000000 l    df *ABS*	00000000 alt_isatty.c
0000e938 l     F .text	0000003c alt_get_errno
00000000 l    df *ABS*	00000000 alt_load.c
0000ea18 l     F .text	00000068 alt_load_section
00000000 l    df *ABS*	00000000 alt_lseek.c
0000eb04 l     F .text	0000003c alt_get_errno
00000000 l    df *ABS*	00000000 alt_main.c
00000000 l    df *ABS*	00000000 alt_malloc_lock.c
00000000 l    df *ABS*	00000000 alt_read.c
0000ecd8 l     F .text	0000003c alt_get_errno
00000000 l    df *ABS*	00000000 alt_release_fd.c
00000000 l    df *ABS*	00000000 alt_sbrk.c
000134d4 l     O .rwdata	00000004 heap_end
00000000 l    df *ABS*	00000000 alt_usleep.c
00000000 l    df *ABS*	00000000 alt_write.c
0000ef54 l     F .text	0000003c alt_get_errno
00000000 l    df *ABS*	00000000 alt_sys_init.c
0000f088 l     F .text	00000034 alt_dev_reg
00012444 l     O .rwdata	00001060 jtag_uart
00000000 l    df *ABS*	00000000 altera_avalon_jtag_uart_fd.c
00000000 l    df *ABS*	00000000 altera_avalon_jtag_uart_init.c
0000f394 l     F .text	0000020c altera_avalon_jtag_uart_irq
0000f5a0 l     F .text	000000a0 altera_avalon_jtag_uart_timeout
00000000 l    df *ABS*	00000000 altera_avalon_jtag_uart_ioctl.c
00000000 l    df *ABS*	00000000 altera_avalon_jtag_uart_read.c
00000000 l    df *ABS*	00000000 altera_avalon_jtag_uart_write.c
00000000 l    df *ABS*	00000000 altera_avalon_timer_sc.c
0000fbd8 l     F .text	00000078 alt_avalon_timer_sc_irq
00000000 l    df *ABS*	00000000 altera_avalon_timer_ts.c
00000000 l    df *ABS*	00000000 altera_avalon_timer_vars.c
00000000 l    df *ABS*	00000000 alt_alarm_start.c
00000000 l    df *ABS*	00000000 alt_busy_sleep.c
00000000 l    df *ABS*	00000000 alt_dcache_flush_all.c
00000000 l    df *ABS*	00000000 alt_dev_llist_insert.c
00010088 l     F .text	0000003c alt_get_errno
00000000 l    df *ABS*	00000000 alt_do_ctors.c
00000000 l    df *ABS*	00000000 alt_do_dtors.c
00000000 l    df *ABS*	00000000 alt_icache_flush_all.c
00000000 l    df *ABS*	00000000 alt_iic.c
00000000 l    df *ABS*	00000000 alt_iic_isr_register.c
00000000 l    df *ABS*	00000000 alt_io_redirect.c
000104fc l     F .text	000000c4 alt_open_fd
00000000 l    df *ABS*	00000000 alt_irq_vars.c
00000000 l    df *ABS*	00000000 alt_open.c
0001063c l     F .text	0000003c alt_get_errno
00010678 l     F .text	000000c4 alt_file_locked
00000000 l    df *ABS*	00000000 alt_tick.c
00000000 l    df *ABS*	00000000 altera_nios2_gen2_irq.c
00000000 l    df *ABS*	00000000 alt_find_dev.c
00000000 l    df *ABS*	00000000 alt_find_file.c
00000000 l    df *ABS*	00000000 alt_get_fd.c
00000000 l    df *ABS*	00000000 alt_icache_flush.c
00000000 l    df *ABS*	00000000 atexit.c
00000000 l    df *ABS*	00000000 exit.c
00000000 l    df *ABS*	00000000 memcmp.c
00000000 l    df *ABS*	00000000 __atexit.c
00000000 l    df *ABS*	00000000 __call_atexit.c
00000000 l    df *ABS*	00000000 alt_exit.c
00015164 g     O .bss	00000004 alt_instruction_exception_handler
00008d18 g     F .text	00000074 _mprec_log10
00008e04 g     F .text	0000008c __any_on
0000b1a8 g     F .text	00000054 _isatty_r
00011694 g     O .rodata	00000028 __mprec_tinytens
0000ec14 g     F .text	0000007c alt_main
00002820 g     F .text	000000c0 _puts_r
00015190 g     O .bss	00000100 alt_irq
0000b1fc g     F .text	00000060 _lseek_r
000115ec g     O .rodata	00000009 gy_array
000134e4 g       *ABS*	00000000 __flash_rwdata_start
000150e0 g     O .bss	00000004 sobel_y_start
0000d240 g     F .text	00000088 .hidden __eqdf2
00015290 g       *ABS*	00000000 __alt_heap_start
000027e4 g     F .text	0000003c printf
0000b414 g     F .text	0000009c _wcrtomb_r
00009540 g     F .text	0000005c __sseek
00006c84 g     F .text	00000010 __sinit
0000b2bc g     F .text	00000140 __swbuf_r
0000774c g     F .text	0000007c _setlocale_r
00006aec g     F .text	00000068 __sfmoreglue
0000ecb4 g     F .text	00000024 __malloc_unlock
00000a7c g     F .text	00000014 LCD_Write_Command
00015110 g     O .bss	00000004 sobel_width
000150e4 g     O .bss	00000004 sobel_x_end
00015154 g     O .bss	00000004 altera_avalon_timer_ts_freq
00007c10 g     F .text	0000015c memmove
00000a90 g     F .text	00000014 LCD_Write_Data
00006c6c g     F .text	00000018 _cleanup
00007e94 g     F .text	000000a8 _Balloc
0000d2c8 g     F .text	000000dc .hidden __gtdf2
00010a34 g     F .text	00000024 altera_nios2_gen2_irq_init
00000000 g     F .entry	0000001c __reset
00000020 g       *ABS*	00000000 __flash_exceptions_start
00000598 g     F .text	00000024 cam_get_xsize
0000b14c g     F .text	0000005c _fstat_r
00015134 g     O .bss	00000004 errno
000094bc g     F .text	00000008 __seofread
000150e8 g     O .bss	00000004 sobel_x_diff
00015148 g     O .bss	00000004 alt_argv
0001b4a4 g       *ABS*	00000000 _gp
0000ef24 g     F .text	00000030 usleep
00000658 g     F .text	00000074 cam_set_image_pointer
000122c4 g     O .rwdata	00000180 alt_fd_list
00001dac g     F .text	00000010 vga_set_pointer
00010a58 g     F .text	00000090 alt_find_dev
00007ac8 g     F .text	00000148 memcpy
0000693c g     F .text	0000000c _cleanup_r
0000e52c g     F .text	000000dc .hidden __floatsidf
000105c0 g     F .text	0000007c alt_io_redirect
0000d3a4 g     F .text	000000f4 .hidden __ltdf2
00011154 g       *ABS*	00000000 __DTOR_END__
000028e0 g     F .text	00000014 puts
00010d24 g     F .text	0000009c alt_exception_cause_generated_bad_addr
000093f4 g     F .text	00000074 __fpclassifyd
00008c74 g     F .text	000000a4 __ratio
0000abf0 g     F .text	0000001c __vfiprintf_internal
0000f798 g     F .text	0000021c altera_avalon_jtag_uart_read
00001f80 g     F .text	00000014 malloc
000027b4 g     F .text	00000030 _printf_r
000008d0 g     F .text	00000008 get_grayscale_picture
00001ec4 g     F .text	00000064 .hidden __udivsi3
000111b4 g     O .rodata	00000128 lens_roll_off_tbl
00000280 g     F .text	00000318 init_camera
0000e974 g     F .text	000000a4 isatty
000116e4 g     O .rodata	000000c8 __mprec_tens
000077c8 g     F .text	0000000c __locale_charset
00010c94 g     F .text	00000090 alt_icache_flush
00015130 g     O .bss	00000004 __malloc_top_pad
000134b4 g     O .rwdata	00000004 __mb_cur_max
000077f8 g     F .text	0000000c _localeconv_r
000017a4 g     F .text	00000140 sobel_x
000082a0 g     F .text	0000003c __i2b
00007108 g     F .text	000004bc __sfvwrite_r
00000aa4 g     F .text	00000414 init_LCD
000028f4 g     F .text	00000054 _sbrk_r
000150ec g     O .bss	00000004 sobel_y_end
000005e0 g     F .text	00000078 cam_get_profiling
0000b25c g     F .text	00000060 _read_r
00015114 g     O .bss	00000004 sobel_result
000134cc g     O .rwdata	00000004 alt_max_fd
0000ae40 g     F .text	000000f0 _fclose_r
00006904 g     F .text	00000030 fflush
0001512c g     O .bss	00000004 __malloc_max_sbrked_mem
000150d8 g     O .bss	00000004 grayscale_array
0000c0ac g     F .text	000008ac .hidden __adddf3
000005bc g     F .text	00000024 cam_get_ysize
00008a1c g     F .text	0000010c __b2d
0000bb74 g     F .text	00000538 .hidden __umoddi3
0000eb40 g     F .text	000000d4 lseek
00000998 g     F .text	0000008c i2c_short_read
000134ac g     O .rwdata	00000004 _global_impure_ptr
00008e90 g     F .text	00000564 _realloc_r
00015290 g       *ABS*	00000000 __bss_end
0001040c g     F .text	000000f0 alt_iic_isr_register
0001092c g     F .text	00000108 alt_tick
0000b5fc g     F .text	00000578 .hidden __udivdi3
0000b0a8 g     F .text	00000024 _fputwc_r
000116bc g     O .rodata	00000028 __mprec_bigtens
00008084 g     F .text	00000104 __s2b
0000e608 g     F .text	000000a8 .hidden __floatunsidf
0000875c g     F .text	00000060 __mcmp
00006ca4 g     F .text	00000018 __fp_lock_all
000103c0 g     F .text	0000004c alt_ic_irq_enabled
000150d0 g     O .bss	00000004 grayscape_height
00010890 g     F .text	0000009c alt_alarm_stop
000150f0 g     O .bss	00000004 sobel_threshold_start
00015158 g     O .bss	00000004 alt_irq_active
000000fc g     F .exceptions	000000d4 alt_irq_handler
0001229c g     O .rwdata	00000028 alt_dev_null
00000f44 g     F .text	00000078 transfer_LCD_with_dma
0000139c g     F .text	000001fc sobel_complete
00010068 g     F .text	00000020 alt_dcache_flush_all
00008188 g     F .text	00000068 __hi0bits
0000e4ac g     F .text	00000080 .hidden __fixdfsi
000134e4 g       *ABS*	00000000 __ram_rwdata_end
000134c4 g     O .rwdata	00000008 alt_dev_list
0000ef90 g     F .text	000000f8 write
0000fdc4 g     F .text	00000020 alt_timestamp_freq
000118f8 g       *ABS*	00000000 __ram_rodata_end
0000e888 g     F .text	000000b0 fstat
0000d3a4 g     F .text	000000f4 .hidden __ledf2
000084d4 g     F .text	00000140 __pow5mult
00009794 g     F .text	0000145c ___vfiprintf_internal_r
00015140 g     O .bss	00000004 __nlocale_changed
00001f28 g     F .text	00000058 .hidden __umodsi3
00001d9c g     F .text	00000008 GetSobel_rgb
00015290 g       *ABS*	00000000 end
00001da4 g     F .text	00000008 GetSobelResult
000006f0 g     F .text	00000020 take_picture_blocking
00000750 g     F .text	00000014 DIPSW_get_value
00001b64 g     F .text	00000184 sobel_y_with_rgb
0000f2d4 g     F .text	000000c0 altera_avalon_jtag_uart_init
000001d0 g     F .exceptions	00000074 alt_instruction_exception_entry
000006e0 g     F .text	00000010 current_image_pointer
00011154 g       *ABS*	00000000 __CTOR_LIST__
01000000 g       *ABS*	00000000 __alt_stack_pointer
0000fc50 g     F .text	0000007c alt_avalon_timer_sc_init
0000e6b0 g     F .text	00000064 .hidden __clzsi2
0000f9b4 g     F .text	00000224 altera_avalon_jtag_uart_write
00006c94 g     F .text	00000004 __sfp_lock_acquire
000079e4 g     F .text	000000e4 memchr
000029e0 g     F .text	000021f8 ___vfprintf_internal_r
00006df8 g     F .text	00000310 _free_r
000077d4 g     F .text	00000010 __locale_mb_cur_max
00001a4c g     F .text	00000118 sobel_y
000112dc g     O .rodata	00000140 noise_reduction_reg_settings_array
00010fa0 g     F .text	00000180 __call_exitprocs
0001513c g     O .bss	00000004 __mlocale_changed
000134a4 g     O .rwdata	00000004 __malloc_sbrk_base
00000244 g     F .text	0000003c _start
0001515c g     O .bss	00000004 _alt_tick_rate
00008614 g     F .text	00000148 __lshift
00015160 g     O .bss	00000004 _alt_nticks
0000ed14 g     F .text	000000fc read
0000f0f4 g     F .text	0000007c alt_sys_init
000018e4 g     F .text	00000168 sobel_x_with_rgb
00010e88 g     F .text	00000118 __register_exitproc
000082dc g     F .text	000001f8 __multiply
0000f640 g     F .text	00000068 altera_avalon_jtag_uart_close
000118f8 g       *ABS*	00000000 __ram_rwdata_start
00011154 g       *ABS*	00000000 __ram_rodata_start
00015168 g     O .bss	00000028 __malloc_current_mallinfo
00008b28 g     F .text	0000014c __d2b
00015118 g     O .bss	00000004 sobel_height
00000710 g     F .text	00000014 enable_continues_mode
0000f170 g     F .text	00000060 altera_avalon_jtag_uart_read_fd
00001598 g     F .text	000000e4 init_sobel_arrays
00010bf0 g     F .text	000000a4 alt_get_fd
0000ff10 g     F .text	00000158 alt_busy_sleep
00000000 g       *ABS*	00000000 __alt_mem_sdram_ctrl
0000ad28 g     F .text	00000054 _close_r
00010e0c g     F .text	0000007c memcmp
0000f230 g     F .text	00000050 altera_avalon_jtag_uart_close_fd
00015290 g       *ABS*	00000000 __alt_stack_base
0000f280 g     F .text	00000054 altera_avalon_jtag_uart_ioctl_fd
00004cb0 g     F .text	00000154 __swsetup_r
0000c958 g     F .text	000008e8 .hidden __divdf3
00006b54 g     F .text	00000118 __sfp
00008d8c g     F .text	00000078 __copybits
000119f8 g     O .rwdata	00000408 __malloc_av_
00006ca0 g     F .text	00000004 __sinit_lock_release
0000d498 g     F .text	00000718 .hidden __muldf3
00009468 g     F .text	00000054 __sread
00010ae8 g     F .text	00000108 alt_find_file
000100c4 g     F .text	000000a4 alt_dev_llist_insert
0000ec90 g     F .text	00000024 __malloc_lock
0000ee74 g     F .text	000000b0 sbrk
000068a8 g     F .text	0000005c _fflush_r
0000ad7c g     F .text	000000c4 _calloc_r
000118f8 g     O .rwdata	00000100 .hidden __divsi3_table
000150d0 g       *ABS*	00000000 __bss_start
00007d6c g     F .text	00000128 memset
00000fbc g     F .text	000003e0 main
0001514c g     O .bss	00000004 alt_envp
00015128 g     O .bss	00000004 __malloc_max_total_mem
000008c0 g     F .text	00000008 get_grayscale_width
0000f1d0 g     F .text	00000060 altera_avalon_jtag_uart_write_fd
0000b3fc g     F .text	00000018 __swbuf
0001511c g     O .bss	00000004 sobel_x_result
0000959c g     F .text	00000008 __sclose
01000000 g       *ABS*	00000000 __alt_heap_limit
0000af30 g     F .text	00000014 fclose
0000fccc g     F .text	00000078 alt_timestamp_start
00005004 g     F .text	00001688 _dtoa_r
00001fa8 g     F .text	0000080c _malloc_r
0000b570 g     F .text	00000030 __ascii_wctomb
000134d0 g     O .rwdata	00000004 alt_errno
000075c4 g     F .text	000000c4 _fwalk
00001dcc g     F .text	00000084 .hidden __divsi3
000150f4 g     O .bss	00000004 sobel_threshold_end
00006cd4 g     F .text	00000124 _malloc_trim_r
00011154 g       *ABS*	00000000 __CTOR_END__
000150d4 g     O .bss	00000004 grayscale_width
000095a4 g     F .text	000000dc strcmp
000150f8 g     O .bss	00000004 conv_grayscale_start
00000eb8 g     F .text	0000008c transfer_LCD_no_dma
00011154 g       *ABS*	00000000 __flash_rodata_start
00011154 g       *ABS*	00000000 __DTOR_LIST__
000150fc g     O .bss	00000004 sobel_y_diff
0000d240 g     F .text	00000088 .hidden __nedf2
0001141c g     O .rodata	00000118 preview_snapshot_mode_reg_settings_array
0000f0bc g     F .text	00000038 alt_irq_init
0000ee10 g     F .text	00000064 alt_release_fd
000008f0 g     F .text	000000a8 i2c_auto_detect
000117cc g     O .rodata	00000100 .hidden __clz_tab
000006cc g     F .text	00000014 current_image_valid
00015138 g     O .bss	00000004 _PathLocale
000008d8 g     F .text	00000018 i2c_busy_wait
00010dc0 g     F .text	00000014 atexit
0000acc8 g     F .text	00000060 _write_r
00007804 g     F .text	00000018 setlocale
000134b0 g     O .rwdata	00000004 _impure_ptr
00015144 g     O .bss	00000004 alt_argc
0000668c g     F .text	0000021c __sflush_r
00015150 g     O .bss	00000004 altera_avalon_timer_ts_base
000101c8 g     F .text	00000060 _do_dtors
000077f0 g     F .text	00000008 __locale_cjk_lang
00015100 g     O .bss	00000004 conv_grayscale_diff
00000020 g       .exceptions	00000000 alt_irq_entry
000089b8 g     F .text	00000064 __ulp
00006cbc g     F .text	00000018 __fp_unlock_all
00015104 g     O .bss	00000004 sobel_threshold_diff
000134bc g     O .rwdata	00000008 alt_fs_list
00015120 g     O .bss	00000004 sobel_y_result
00000a24 g     F .text	00000058 i2c_short_write
00000020 g       *ABS*	00000000 __ram_exceptions_start
000150dc g     O .bss	00000002 LCD_height
0000781c g     F .text	0000000c localeconv
0000fd44 g     F .text	00000080 alt_timestamp
00001dbc g     F .text	00000010 vga_set_swap
0001025c g     F .text	00000050 alt_ic_isr_register
00001ce8 g     F .text	000000b4 sobel_threshold
000134e4 g       *ABS*	00000000 _edata
00015290 g       *ABS*	00000000 _end
0000af44 g     F .text	00000164 __fputwc
00000244 g       *ABS*	00000000 __ram_exceptions_end
0000f6a8 g     F .text	000000f0 altera_avalon_jtag_uart_ioctl
000115f5 g     O .rodata	00000009 gx_array
00010334 g     F .text	0000008c alt_ic_irq_disable
000094c4 g     F .text	0000007c __swrite
000134a8 g     O .rwdata	00000004 __malloc_trim_threshold
000150de g     O .bss	00000002 LCD_width
00000764 g     F .text	0000015c conv_grayscale
000077e4 g     F .text	0000000c __locale_msgcharset
00010dd4 g     F .text	00000038 exit
00007688 g     F .text	000000c4 _fwalk_reent
000087bc g     F .text	000001fc __mdiff
00001e50 g     F .text	00000074 .hidden __modsi3
01000000 g       *ABS*	00000000 __alt_data_end
00000020 g     F .exceptions	00000000 alt_exception
00006c98 g     F .text	00000004 __sfp_lock_release
000008c8 g     F .text	00000008 get_grayscale_height
00011120 g     F .text	00000034 _exit
0000167c g     F .text	00000128 sobel_mac
0000fde4 g     F .text	0000012c alt_alarm_start
00015108 g     O .bss	00000004 conv_grayscale_end
00007828 g     F .text	000001bc __smakebuf_r
00015124 g     O .bss	00000004 sobel_rgb565
00002948 g     F .text	00000098 strlen
0001073c g     F .text	00000154 open
0000d2c8 g     F .text	000000dc .hidden __gedf2
000134b8 g     O .rwdata	00000004 __wctomb
0000977c g     F .text	00000018 __sprint_r
00010228 g     F .text	00000034 alt_icache_flush_all
000134d8 g     O .rwdata	00000004 alt_priority_mask
000102ac g     F .text	00000088 alt_ic_irq_enable
00004bd8 g     F .text	0000001c __vfprintf_internal
0000b5a0 g     F .text	0000005c _wctomb_r
0000dbb0 g     F .text	000008fc .hidden __subdf3
000081f0 g     F .text	000000b0 __lo0bits
000134dc g     O .rwdata	00000008 alt_alarm_list
00010168 g     F .text	00000060 _do_ctors
0000b4b0 g     F .text	000000c0 wcrtomb
0000e750 g     F .text	000000d0 close
0000ea80 g     F .text	00000084 alt_load
0001510c g     O .bss	00000004 sobel_x_start
0000b0cc g     F .text	00000080 fputwc
00001f94 g     F .text	00000014 free
00006c9c g     F .text	00000004 __sinit_lock_acquire
00007f64 g     F .text	00000120 __multadd
00007f3c g     F .text	00000028 _Bfree
00000724 g     F .text	0000002c new_image_available



Disassembly of section .entry:

00000000 <__reset>:
#if NIOS2_ICACHE_SIZE > 0 && defined(ALT_ALLOW_CODE_AT_RESET) && (!defined(ALT_SIM_OPTIMIZE) || defined(NIOS2_ECC_PRESENT))
    /* Assume the instruction cache size is always a power of two. */
#if NIOS2_ICACHE_SIZE > 0x8000
    movhi r2, %hi(NIOS2_ICACHE_SIZE)
#else
    movui r2, NIOS2_ICACHE_SIZE
   0:	00840014 	movui	r2,4096
#endif

0:
    initi r2
   4:	1001483a 	initi	r2
    addi r2, r2, -NIOS2_ICACHE_LINE_SIZE
   8:	10bff804 	addi	r2,r2,-32
    bgt r2, zero, 0b
   c:	00bffd16 	blt	zero,r2,4 <__reset+0x4>
 * Jump to the _start entry point in the .text section if reset code
 * is allowed or if optimizing for RTL simulation.
 */
#if defined(ALT_ALLOW_CODE_AT_RESET) || defined(ALT_SIM_OPTIMIZE)
    /* Jump to the _start entry point in the .text section. */
    movhi r1, %hi(_start)
  10:	00400034 	movhi	at,0
    ori r1, r1, %lo(_start)
  14:	08409114 	ori	at,at,580
    jmp r1
  18:	0800683a 	jmp	at
  1c:	00000000 	call	0 <__reset>

Disassembly of section .exceptions:

00000020 <alt_exception>:

#else /* ALT_EXCEPTION_STACK disabled */
        /* 
         * Reserve space on normal stack for registers about to be pushed.
         */
        addi  sp, sp, -76
  20:	deffed04 	addi	sp,sp,-76
         * documentation for details).
         *
         * Leave a gap in the stack frame at 4(sp) for the muldiv handler to
         * store zero into.
         */
        stw   ra,  0(sp)
  24:	dfc00015 	stw	ra,0(sp)
        stw   r1,   8(sp)
  28:	d8400215 	stw	at,8(sp)
        stw   r2,  12(sp)
  2c:	d8800315 	stw	r2,12(sp)
        stw   r3,  16(sp)
  30:	d8c00415 	stw	r3,16(sp)
        stw   r4,  20(sp)
  34:	d9000515 	stw	r4,20(sp)
        stw   r5,  24(sp)
  38:	d9400615 	stw	r5,24(sp)
        stw   r6,  28(sp)
  3c:	d9800715 	stw	r6,28(sp)
        stw   r7,  32(sp)
  40:	d9c00815 	stw	r7,32(sp)
        rdctl r5, estatus   /* Read early to avoid usage stall */
  44:	000b307a 	rdctl	r5,estatus
        stw   r8,  36(sp)
  48:	da000915 	stw	r8,36(sp)
        stw   r9,  40(sp)
  4c:	da400a15 	stw	r9,40(sp)
        stw   r10, 44(sp)
  50:	da800b15 	stw	r10,44(sp)
        stw   r11, 48(sp)
  54:	dac00c15 	stw	r11,48(sp)
        stw   r12, 52(sp)
  58:	db000d15 	stw	r12,52(sp)
        stw   r13, 56(sp)
  5c:	db400e15 	stw	r13,56(sp)
        stw   r14, 60(sp)
  60:	db800f15 	stw	r14,60(sp)
        stw   r15, 64(sp)
  64:	dbc01015 	stw	r15,64(sp)
        /*
         * ea-4 contains the address of the instruction being executed
         * when the exception occured. For interrupt exceptions, we will
         * will be re-issue the isntruction. Store it in 72(sp)
         */
        stw   r5,  68(sp)  /* estatus */
  68:	d9401115 	stw	r5,68(sp)
        addi  r15, ea, -4  /* instruction that caused exception */
  6c:	ebffff04 	addi	r15,ea,-4
        stw   r15,  72(sp)
  70:	dbc01215 	stw	r15,72(sp)
#else
        /*
         * Test to see if the exception was a software exception or caused 
         * by an external interrupt, and vector accordingly.
         */
        rdctl r4, ipending
  74:	0009313a 	rdctl	r4,ipending
        andi  r2, r5, 1
  78:	2880004c 	andi	r2,r5,1
        beq   r2, zero, .Lnot_irq
  7c:	10000326 	beq	r2,zero,8c <alt_exception+0x6c>
        beq   r4, zero, .Lnot_irq
  80:	20000226 	beq	r4,zero,8c <alt_exception+0x6c>
        /*
         * Now that all necessary registers have been preserved, call 
         * alt_irq_handler() to process the interrupts.
         */

        call alt_irq_handler
  84:	00000fc0 	call	fc <alt_irq_handler>

        .section .exceptions.irqreturn, "xa"

        br    .Lexception_exit
  88:	00000706 	br	a8 <alt_exception+0x88>
         * upon completion, so we write ea (address of instruction *after*
         * the one where the exception occured) into 72(sp). The actual
         * instruction that caused the exception is written in r2, which these
         * handlers will utilize.
         */
        stw ea, 72(sp) /* EA is PC+4 so will skip over instruction causing exception */
  8c:	df401215 	stw	ea,72(sp)
.Lunknown_16bit:
        addi.n r4, r4, 2 /* Need PC+2 to skip over instruction causing exception */
        stw r4, 72(sp)

#else /* CDX is not Enabled and all instructions are 32bits */
        ldw r2, -4(ea) /* Instruction value that caused exception */
  90:	e8bfff17 	ldw	r2,-4(ea)
         * debugger is present) or go into an infinite loop since the
         * handling behavior is undefined; in that case we will not return here.
         */

        /* Load exception-causing address as first argument (r4) */
        addi   r4, ea, -4
  94:	e93fff04 	addi	r4,ea,-4

        /* Call the instruction-exception entry */
        call   alt_instruction_exception_entry
  98:	00001d00 	call	1d0 <alt_instruction_exception_entry>
         * instruction
         *
         * Return code was 0: Skip. The instruction after the exception is
         * already stored in 72(sp).
         */
        bne   r2, r0, .Lexception_exit
  9c:	1000021e 	bne	r2,zero,a8 <alt_exception+0x88>

        /*
         * Otherwise, modify 72(sp) to re-issue the instruction that caused the
         * exception.
         */
        addi  r15, ea, -4  /* instruction that caused exception */
  a0:	ebffff04 	addi	r15,ea,-4
        stw   r15,  72(sp)
  a4:	dbc01215 	stw	r15,72(sp)
        /* 
         * Restore the saved registers, so that all general purpose registers 
         * have been restored to their state at the time the interrupt occured.
         */

        ldw   r5,  68(sp)
  a8:	d9401117 	ldw	r5,68(sp)
        ldw   ea,  72(sp)  /* This becomes the PC once eret is executed */
  ac:	df401217 	ldw	ea,72(sp)
        ldw   ra,   0(sp)
  b0:	dfc00017 	ldw	ra,0(sp)

        wrctl estatus, r5
  b4:	2801707a 	wrctl	estatus,r5

        ldw   r1,   8(sp)
  b8:	d8400217 	ldw	at,8(sp)
        ldw   r2,  12(sp)
  bc:	d8800317 	ldw	r2,12(sp)
        ldw   r3,  16(sp)
  c0:	d8c00417 	ldw	r3,16(sp)
        ldw   r4,  20(sp)
  c4:	d9000517 	ldw	r4,20(sp)
        ldw   r5,  24(sp)
  c8:	d9400617 	ldw	r5,24(sp)
        ldw   r6,  28(sp)
  cc:	d9800717 	ldw	r6,28(sp)
        ldw   r7,  32(sp)
  d0:	d9c00817 	ldw	r7,32(sp)

#if defined(ALT_EXCEPTION_STACK) && defined(ALT_STACK_CHECK)
        ldw   et, %gprel(alt_exception_old_stack_limit)(gp)
#endif

        ldw   r8,  36(sp)
  d4:	da000917 	ldw	r8,36(sp)
        ldw   r9,  40(sp)
  d8:	da400a17 	ldw	r9,40(sp)
        ldw   r10, 44(sp)
  dc:	da800b17 	ldw	r10,44(sp)
        ldw   r11, 48(sp)
  e0:	dac00c17 	ldw	r11,48(sp)
        ldw   r12, 52(sp)
  e4:	db000d17 	ldw	r12,52(sp)
        ldw   r13, 56(sp)
  e8:	db400e17 	ldw	r13,56(sp)
        ldw   r14, 60(sp)
  ec:	db800f17 	ldw	r14,60(sp)
        ldw   r15, 64(sp)
  f0:	dbc01017 	ldw	r15,64(sp)
        stw   et, %gprel(alt_stack_limit_value)(gp)
        stw   zero, %gprel(alt_exception_old_stack_limit)(gp)
#endif /* ALT_STACK_CHECK */
        ldw   sp,  76(sp)
#else /* ALT_EXCEPTION_STACK disabled */
        addi  sp, sp, 76
  f4:	dec01304 	addi	sp,sp,76

        /*
         * Return to the interrupted instruction.
         */

        eret
  f8:	ef80083a 	eret

000000fc <alt_irq_handler>:
 * instruction is present if the macro ALT_CI_INTERRUPT_VECTOR defined.
 */

void alt_irq_handler (void) __attribute__ ((section (".exceptions")));
void alt_irq_handler (void)
{
  fc:	defff904 	addi	sp,sp,-28
 100:	dfc00615 	stw	ra,24(sp)
 104:	df000515 	stw	fp,20(sp)
 108:	df000504 	addi	fp,sp,20
  
  /*
   * Notify the operating system that we are at interrupt level.
   */ 
  
  ALT_OS_INT_ENTER();
 10c:	0001883a 	nop
#ifndef NIOS2_EIC_PRESENT
static ALT_INLINE alt_u32 ALT_ALWAYS_INLINE alt_irq_pending (void)
{
  alt_u32 active;

  NIOS2_READ_IPENDING (active);
 110:	0005313a 	rdctl	r2,ipending
 114:	e0bffe15 	stw	r2,-8(fp)

  return active;
 118:	e0bffe17 	ldw	r2,-8(fp)
   * Consider the case where the high priority interupt is asserted during
   * the interrupt entry sequence for a lower priority interrupt to see why
   * this is the case.
   */

  active = alt_irq_pending ();
 11c:	e0bffb15 	stw	r2,-20(fp)

  do
  {
    i = 0;
 120:	e03ffd15 	stw	zero,-12(fp)
    mask = 1;
 124:	00800044 	movi	r2,1
 128:	e0bffc15 	stw	r2,-16(fp)
     * called to clear the interrupt condition.
     */

    do
    {
      if (active & mask)
 12c:	e0fffb17 	ldw	r3,-20(fp)
 130:	e0bffc17 	ldw	r2,-16(fp)
 134:	1884703a 	and	r2,r3,r2
 138:	10001426 	beq	r2,zero,18c <alt_irq_handler+0x90>
      { 
#ifdef ALT_ENHANCED_INTERRUPT_API_PRESENT
        alt_irq[i].handler(alt_irq[i].context); 
 13c:	00800074 	movhi	r2,1
 140:	10946404 	addi	r2,r2,20880
 144:	e0fffd17 	ldw	r3,-12(fp)
 148:	180690fa 	slli	r3,r3,3
 14c:	10c5883a 	add	r2,r2,r3
 150:	10c00017 	ldw	r3,0(r2)
 154:	00800074 	movhi	r2,1
 158:	10946404 	addi	r2,r2,20880
 15c:	e13ffd17 	ldw	r4,-12(fp)
 160:	200890fa 	slli	r4,r4,3
 164:	1105883a 	add	r2,r2,r4
 168:	10800104 	addi	r2,r2,4
 16c:	10800017 	ldw	r2,0(r2)
 170:	1009883a 	mov	r4,r2
 174:	183ee83a 	callr	r3
#else
        alt_irq[i].handler(alt_irq[i].context, i); 
#endif
        break;
 178:	0001883a 	nop
#ifndef NIOS2_EIC_PRESENT
static ALT_INLINE alt_u32 ALT_ALWAYS_INLINE alt_irq_pending (void)
{
  alt_u32 active;

  NIOS2_READ_IPENDING (active);
 17c:	0005313a 	rdctl	r2,ipending
 180:	e0bfff15 	stw	r2,-4(fp)

  return active;
 184:	e0bfff17 	ldw	r2,-4(fp)
 188:	00000706 	br	1a8 <alt_irq_handler+0xac>
      }
      mask <<= 1;
 18c:	e0bffc17 	ldw	r2,-16(fp)
 190:	1085883a 	add	r2,r2,r2
 194:	e0bffc15 	stw	r2,-16(fp)
      i++;
 198:	e0bffd17 	ldw	r2,-12(fp)
 19c:	10800044 	addi	r2,r2,1
 1a0:	e0bffd15 	stw	r2,-12(fp)

    } while (1);
 1a4:	003fe106 	br	12c <alt_irq_handler+0x30>

    active = alt_irq_pending ();
 1a8:	e0bffb15 	stw	r2,-20(fp)
    
  } while (active);
 1ac:	e0bffb17 	ldw	r2,-20(fp)
 1b0:	103fdb1e 	bne	r2,zero,120 <alt_irq_handler+0x24>

  /*
   * Notify the operating system that interrupt processing is complete.
   */ 

  ALT_OS_INT_EXIT();
 1b4:	0001883a 	nop
}
 1b8:	0001883a 	nop
 1bc:	e037883a 	mov	sp,fp
 1c0:	dfc00117 	ldw	ra,4(sp)
 1c4:	df000017 	ldw	fp,0(sp)
 1c8:	dec00204 	addi	sp,sp,8
 1cc:	f800283a 	ret

000001d0 <alt_instruction_exception_entry>:
 * that handler if it has been registered. Absent a handler, it will
 * break break or hang as discussed below.
 */
int 
alt_instruction_exception_entry (alt_u32 exception_pc)
{
 1d0:	defffb04 	addi	sp,sp,-20
 1d4:	dfc00415 	stw	ra,16(sp)
 1d8:	df000315 	stw	fp,12(sp)
 1dc:	df000304 	addi	fp,sp,12
 1e0:	e13fff15 	stw	r4,-4(fp)
 * NIOS2_EXCEPTION_CAUSE_NOT_PRESENT. Your handling routine should
 * check the validity of the cause argument before proceeding.
 */
#ifdef NIOS2_HAS_EXTRA_EXCEPTION_INFO
  /* Get exception cause & "badaddr" */
  NIOS2_READ_EXCEPTION(cause);
 1e4:	000531fa 	rdctl	r2,exception
 1e8:	e0bffd15 	stw	r2,-12(fp)
  cause = ( (cause & NIOS2_EXCEPTION_REG_CAUSE_MASK) >>
 1ec:	e0bffd17 	ldw	r2,-12(fp)
 1f0:	10801f0c 	andi	r2,r2,124
 1f4:	1004d0ba 	srli	r2,r2,2
 1f8:	e0bffd15 	stw	r2,-12(fp)
              NIOS2_EXCEPTION_REG_CAUSE_OFST );

  NIOS2_READ_BADADDR(badaddr);
 1fc:	0005333a 	rdctl	r2,badaddr
 200:	e0bffe15 	stw	r2,-8(fp)
#else
  cause = NIOS2_EXCEPTION_CAUSE_NOT_PRESENT;
  badaddr = 0;
#endif /* NIOS2_HAS_EXTRA_EXCEPTION_INFO */

  if(alt_instruction_exception_handler) {
 204:	d0a73017 	ldw	r2,-25408(gp)
 208:	10000726 	beq	r2,zero,228 <alt_instruction_exception_entry+0x58>
     * Call handler. Its return value indicates whether the exception-causing
     * instruction should be re-issued. The code that called us,
     * alt_eceptions_entry.S, will look at this value and adjust the ea
     * register as necessary
     */
    return alt_instruction_exception_handler(cause, exception_pc, badaddr);
 20c:	d0a73017 	ldw	r2,-25408(gp)
 210:	e0fffd17 	ldw	r3,-12(fp)
 214:	e1bffe17 	ldw	r6,-8(fp)
 218:	e17fff17 	ldw	r5,-4(fp)
 21c:	1809883a 	mov	r4,r3
 220:	103ee83a 	callr	r2
 224:	00000206 	br	230 <alt_instruction_exception_entry+0x60>
   *    (a peripheral which negates its interrupt output before its
   *    interrupt handler has been executed will cause spurious interrupts)
   */
  else {
#ifdef NIOS2_HAS_DEBUG_STUB
    NIOS2_BREAK();
 228:	003da03a 	break	0
      ;
#endif /* NIOS2_HAS_DEBUG_STUB */
  }

  /* We should not get here. Remove compiler warning. */
  return NIOS2_EXCEPTION_RETURN_REISSUE_INST;
 22c:	0005883a 	mov	r2,zero
}
 230:	e037883a 	mov	sp,fp
 234:	dfc00117 	ldw	ra,4(sp)
 238:	df000017 	ldw	fp,0(sp)
 23c:	dec00204 	addi	sp,sp,8
 240:	f800283a 	ret

Disassembly of section .text:

00000244 <_start>:

    /*
     * Now that the caches are initialized, set up the stack pointer and global pointer.
     * The values provided by the linker are assumed to be correctly aligned.
     */
    movhi sp, %hi(__alt_stack_pointer)
     244:	06c04034 	movhi	sp,256
    ori sp, sp, %lo(__alt_stack_pointer)
     248:	dec00014 	ori	sp,sp,0
    movhi gp, %hi(_gp)
     24c:	06800074 	movhi	gp,1
    ori gp, gp, %lo(_gp)
     250:	d6ad2914 	ori	gp,gp,46244
 */
#ifndef ALT_SIM_OPTIMIZE
    /* Log that the BSS is about to be cleared. */
    ALT_LOG_PUTS(alt_log_msg_bss)

    movhi r2, %hi(__bss_start)
     254:	00800074 	movhi	r2,1
    ori r2, r2, %lo(__bss_start)
     258:	10943414 	ori	r2,r2,20688

    movhi r3, %hi(__bss_end)
     25c:	00c00074 	movhi	r3,1
    ori r3, r3, %lo(__bss_end)
     260:	18d4a414 	ori	r3,r3,21136

    beq r2, r3, 1f
     264:	10c00326 	beq	r2,r3,274 <_start+0x30>

0:
    stw zero, (r2)
     268:	10000015 	stw	zero,0(r2)
    addi r2, r2, 4
     26c:	10800104 	addi	r2,r2,4
    bltu r2, r3, 0b
     270:	10fffd36 	bltu	r2,r3,268 <_start+0x24>
     * section aren't defined until alt_load() has been called).
     */
    mov   et, zero
#endif

    call alt_load
     274:	000ea800 	call	ea80 <alt_load>

    /* Log that alt_main is about to be called. */
    ALT_LOG_PUTS(alt_log_msg_alt_main)

    /* Call the C entry point. It should never return. */
    call alt_main
     278:	000ec140 	call	ec14 <alt_main>

0000027c <alt_after_alt_main>:

    /* Wait in infinite loop in case alt_main does return. */
alt_after_alt_main:
    br alt_after_alt_main
     27c:	003fff06 	br	27c <alt_after_alt_main>

00000280 <init_camera>:
#include "camera.h"
#include "mt9d112.h"

void init_camera() {
	int i;
	IOWR_8DIRECT(I2C_CTRL_BASE,I2C_PRESCALE_REG,2); // Set prescaler
     280:	00804034 	movhi	r2,256
     284:	10842744 	addi	r2,r2,4253
     288:	00c00084 	movi	r3,2
     28c:	10c00025 	stbio	r3,0(r2)
	IOWR_8DIRECT(CAM_CTRL_BASE,CAM_CONTROL_REG,CAM_Reset);
     290:	00804034 	movhi	r2,256
     294:	10841304 	addi	r2,r2,4172
     298:	00c00044 	movi	r3,1
     29c:	10c00025 	stbio	r3,0(r2)
     2a0:	008003f4 	movhi	r2,15
     2a4:	10909004 	addi	r2,r2,16960
	for (i=0; i < 1000000 ; i++)
		asm volatile ("nop");
     2a8:	0001883a 	nop
     2ac:	10bfffc4 	addi	r2,r2,-1

void init_camera() {
	int i;
	IOWR_8DIRECT(I2C_CTRL_BASE,I2C_PRESCALE_REG,2); // Set prescaler
	IOWR_8DIRECT(CAM_CTRL_BASE,CAM_CONTROL_REG,CAM_Reset);
	for (i=0; i < 1000000 ; i++)
     2b0:	103ffd1e 	bne	r2,zero,2a8 <init_camera+0x28>
		asm volatile ("nop");
	IOWR_8DIRECT(CAM_CTRL_BASE,CAM_CONTROL_REG,0);
     2b4:	00804034 	movhi	r2,256
     2b8:	10841304 	addi	r2,r2,4172
     2bc:	10000025 	stbio	zero,0(r2)
     2c0:	008003f4 	movhi	r2,15
     2c4:	10909004 	addi	r2,r2,16960
	for (i=0; i < 1000000 ; i++)
		asm volatile ("nop");
     2c8:	0001883a 	nop
     2cc:	10bfffc4 	addi	r2,r2,-1
	IOWR_8DIRECT(I2C_CTRL_BASE,I2C_PRESCALE_REG,2); // Set prescaler
	IOWR_8DIRECT(CAM_CTRL_BASE,CAM_CONTROL_REG,CAM_Reset);
	for (i=0; i < 1000000 ; i++)
		asm volatile ("nop");
	IOWR_8DIRECT(CAM_CTRL_BASE,CAM_CONTROL_REG,0);
	for (i=0; i < 1000000 ; i++)
     2d0:	103ffd1e 	bne	r2,zero,2c8 <init_camera+0x48>
#include <stdio.h>
#include "i2c.h"
#include "camera.h"
#include "mt9d112.h"

void init_camera() {
     2d4:	defffc04 	addi	sp,sp,-16
	for (i=0; i < 1000000 ; i++)
		asm volatile ("nop");
	IOWR_8DIRECT(CAM_CTRL_BASE,CAM_CONTROL_REG,0);
	for (i=0; i < 1000000 ; i++)
		asm volatile ("nop");
	i2c_short_write(CAM_I2C_ID,REG_MT9D112_MCU_BOOT,0x0001);
     2d8:	01800044 	movi	r6,1
     2dc:	014ce184 	movi	r5,13190
     2e0:	01001e04 	movi	r4,120
#include <stdio.h>
#include "i2c.h"
#include "camera.h"
#include "mt9d112.h"

void init_camera() {
     2e4:	dfc00315 	stw	ra,12(sp)
     2e8:	dc800215 	stw	r18,8(sp)
     2ec:	dc400115 	stw	r17,4(sp)
     2f0:	dc000015 	stw	r16,0(sp)
	for (i=0; i < 1000000 ; i++)
		asm volatile ("nop");
	IOWR_8DIRECT(CAM_CTRL_BASE,CAM_CONTROL_REG,0);
	for (i=0; i < 1000000 ; i++)
		asm volatile ("nop");
	i2c_short_write(CAM_I2C_ID,REG_MT9D112_MCU_BOOT,0x0001);
     2f4:	0000a240 	call	a24 <i2c_short_write>
	i2c_short_write(CAM_I2C_ID,REG_MT9D112_MCU_BOOT,0x0000);
     2f8:	000d883a 	mov	r6,zero
     2fc:	014ce184 	movi	r5,13190
     300:	01001e04 	movi	r4,120
     304:	0000a240 	call	a24 <i2c_short_write>
     308:	008003f4 	movhi	r2,15
     30c:	10909004 	addi	r2,r2,16960
	for (i=0; i < 1000000 ; i++)
		asm volatile ("nop");
     310:	0001883a 	nop
     314:	10bfffc4 	addi	r2,r2,-1
	IOWR_8DIRECT(CAM_CTRL_BASE,CAM_CONTROL_REG,0);
	for (i=0; i < 1000000 ; i++)
		asm volatile ("nop");
	i2c_short_write(CAM_I2C_ID,REG_MT9D112_MCU_BOOT,0x0001);
	i2c_short_write(CAM_I2C_ID,REG_MT9D112_MCU_BOOT,0x0000);
	for (i=0; i < 1000000 ; i++)
     318:	103ffd1e 	bne	r2,zero,310 <init_camera+0x90>
		asm volatile ("nop");
	i2c_short_write(CAM_I2C_ID,REG_MT9D112_SENSOR_RESET,0x00C4);
     31c:	01803104 	movi	r6,196
     320:	014c0684 	movi	r5,12314
     324:	01001e04 	movi	r4,120
     328:	0000a240 	call	a24 <i2c_short_write>
	i2c_short_write(CAM_I2C_ID,REG_MT9D112_STANDBY_CONTROL,0x0008);
     32c:	01800204 	movi	r6,8
     330:	014c8084 	movi	r5,12802
     334:	01001e04 	movi	r4,120
     338:	0000a240 	call	a24 <i2c_short_write>
	i2c_short_write(CAM_I2C_ID,0x33F4,0x031D);
     33c:	0180c744 	movi	r6,797
     340:	014cfd04 	movi	r5,13300
     344:	01001e04 	movi	r4,120
     348:	0000a240 	call	a24 <i2c_short_write>
     34c:	008000b4 	movhi	r2,2
     350:	10a1a804 	addi	r2,r2,-31072
	for (i=0; i < 100000 ; i++)
		asm volatile ("nop");
     354:	0001883a 	nop
     358:	10bfffc4 	addi	r2,r2,-1
	for (i=0; i < 1000000 ; i++)
		asm volatile ("nop");
	i2c_short_write(CAM_I2C_ID,REG_MT9D112_SENSOR_RESET,0x00C4);
	i2c_short_write(CAM_I2C_ID,REG_MT9D112_STANDBY_CONTROL,0x0008);
	i2c_short_write(CAM_I2C_ID,0x33F4,0x031D);
	for (i=0; i < 100000 ; i++)
     35c:	103ffd1e 	bne	r2,zero,354 <init_camera+0xd4>
		asm volatile ("nop");
	/* enable PLL */
	i2c_short_write(CAM_I2C_ID,REG_MT9D112_PLL_CLK_IN_CONTROL,0x8F09);
     360:	01a3c254 	movui	r6,36617
     364:	014d0784 	movi	r5,13342
     368:	01001e04 	movi	r4,120
     36c:	0000a240 	call	a24 <i2c_short_write>
	i2c_short_write(CAM_I2C_ID,REG_MT9D112_PLL_DIVIDERS_1,0x0150);
     370:	01805404 	movi	r6,336
     374:	014d0704 	movi	r5,13340
     378:	01001e04 	movi	r4,120
     37c:	0000a240 	call	a24 <i2c_short_write>
	i2c_short_write(CAM_I2C_ID,REG_MT9D112_PLL_CLK_IN_CONTROL,0x8F09);
     380:	01a3c254 	movui	r6,36617
     384:	014d0784 	movi	r5,13342
     388:	01001e04 	movi	r4,120
     38c:	0000a240 	call	a24 <i2c_short_write>
     390:	008000b4 	movhi	r2,2
     394:	10a1a804 	addi	r2,r2,-31072
	for (i=0; i < 100000 ; i++)
		asm volatile ("nop");
     398:	0001883a 	nop
     39c:	10bfffc4 	addi	r2,r2,-1
		asm volatile ("nop");
	/* enable PLL */
	i2c_short_write(CAM_I2C_ID,REG_MT9D112_PLL_CLK_IN_CONTROL,0x8F09);
	i2c_short_write(CAM_I2C_ID,REG_MT9D112_PLL_DIVIDERS_1,0x0150);
	i2c_short_write(CAM_I2C_ID,REG_MT9D112_PLL_CLK_IN_CONTROL,0x8F09);
	for (i=0; i < 100000 ; i++)
     3a0:	103ffd1e 	bne	r2,zero,398 <init_camera+0x118>
     3a4:	04000074 	movhi	r16,1
     3a8:	84050704 	addi	r16,r16,5148
		asm volatile ("nop");
	i2c_short_write(CAM_I2C_ID,REG_MT9D112_PLL_CLK_IN_CONTROL,0x8F08);
     3ac:	01a3c214 	movui	r6,36616
     3b0:	014d0784 	movi	r5,13342
     3b4:	01001e04 	movi	r4,120
     3b8:	0000a240 	call	a24 <i2c_short_write>
     3bc:	84400084 	addi	r17,r16,2
     3c0:	84804604 	addi	r18,r16,280
	/* Set regs */
	for (i = 0 ; i < (sizeof(preview_snapshot_mode_reg_settings_array)/4); i++) {
		i2c_short_write(CAM_I2C_ID,
     3c4:	8980000b 	ldhu	r6,0(r17)
     3c8:	8140000b 	ldhu	r5,0(r16)
     3cc:	01001e04 	movi	r4,120
     3d0:	84000104 	addi	r16,r16,4
     3d4:	0000a240 	call	a24 <i2c_short_write>
     3d8:	8c400104 	addi	r17,r17,4
	i2c_short_write(CAM_I2C_ID,REG_MT9D112_PLL_CLK_IN_CONTROL,0x8F09);
	for (i=0; i < 100000 ; i++)
		asm volatile ("nop");
	i2c_short_write(CAM_I2C_ID,REG_MT9D112_PLL_CLK_IN_CONTROL,0x8F08);
	/* Set regs */
	for (i = 0 ; i < (sizeof(preview_snapshot_mode_reg_settings_array)/4); i++) {
     3dc:	84bff91e 	bne	r16,r18,3c4 <init_camera+0x144>
     3e0:	04000074 	movhi	r16,1
     3e4:	8404b704 	addi	r16,r16,4828
     3e8:	84400084 	addi	r17,r16,2
     3ec:	84805004 	addi	r18,r16,320
		i2c_short_write(CAM_I2C_ID,
				preview_snapshot_mode_reg_settings_array[i][0],
				preview_snapshot_mode_reg_settings_array[i][1]);
	}
	for (i = 0 ; i < (sizeof(noise_reduction_reg_settings_array)/4); i++) {
		i2c_short_write(CAM_I2C_ID,
     3f0:	8980000b 	ldhu	r6,0(r17)
     3f4:	8140000b 	ldhu	r5,0(r16)
     3f8:	01001e04 	movi	r4,120
     3fc:	84000104 	addi	r16,r16,4
     400:	0000a240 	call	a24 <i2c_short_write>
     404:	8c400104 	addi	r17,r17,4
	for (i = 0 ; i < (sizeof(preview_snapshot_mode_reg_settings_array)/4); i++) {
		i2c_short_write(CAM_I2C_ID,
				preview_snapshot_mode_reg_settings_array[i][0],
				preview_snapshot_mode_reg_settings_array[i][1]);
	}
	for (i = 0 ; i < (sizeof(noise_reduction_reg_settings_array)/4); i++) {
     408:	943ff91e 	bne	r18,r16,3f0 <init_camera+0x170>
		i2c_short_write(CAM_I2C_ID,
				noise_reduction_reg_settings_array[i][0],
				noise_reduction_reg_settings_array[i][1]);
	}
	i2c_short_write(CAM_I2C_ID,0x35A4,0x0593);
     40c:	018164c4 	movi	r6,1427
     410:	014d6904 	movi	r5,13732
     414:	01001e04 	movi	r4,120
     418:	0000a240 	call	a24 <i2c_short_write>
// sequencer table
	i2c_short_write(CAM_I2C_ID,0x338C,0x2799);
     41c:	0189e644 	movi	r6,10137
     420:	014ce304 	movi	r5,13196
     424:	01001e04 	movi	r4,120
     428:	0000a240 	call	a24 <i2c_short_write>
	i2c_short_write(CAM_I2C_ID,0x3390,0x6440);
     42c:	01991004 	movi	r6,25664
     430:	014ce404 	movi	r5,13200
     434:	01001e04 	movi	r4,120
     438:	0000a240 	call	a24 <i2c_short_write>
     43c:	008000b4 	movhi	r2,2
     440:	10a1a804 	addi	r2,r2,-31072
	for (i=0; i < 100000 ; i++)
		asm volatile ("nop");
     444:	0001883a 	nop
     448:	10bfffc4 	addi	r2,r2,-1
	}
	i2c_short_write(CAM_I2C_ID,0x35A4,0x0593);
// sequencer table
	i2c_short_write(CAM_I2C_ID,0x338C,0x2799);
	i2c_short_write(CAM_I2C_ID,0x3390,0x6440);
	for (i=0; i < 100000 ; i++)
     44c:	103ffd1e 	bne	r2,zero,444 <init_camera+0x1c4>
		asm volatile ("nop");
	i2c_short_write(CAM_I2C_ID,0x338C,0x279B);
     450:	0189e6c4 	movi	r6,10139
     454:	014ce304 	movi	r5,13196
     458:	01001e04 	movi	r4,120
     45c:	0000a240 	call	a24 <i2c_short_write>
	i2c_short_write(CAM_I2C_ID,0x3390,0x6440);
     460:	01991004 	movi	r6,25664
     464:	014ce404 	movi	r5,13200
     468:	01001e04 	movi	r4,120
     46c:	0000a240 	call	a24 <i2c_short_write>
     470:	008000b4 	movhi	r2,2
     474:	10a1a804 	addi	r2,r2,-31072
	for (i=0; i < 100000 ; i++)
		asm volatile ("nop");
     478:	0001883a 	nop
     47c:	10bfffc4 	addi	r2,r2,-1
	i2c_short_write(CAM_I2C_ID,0x3390,0x6440);
	for (i=0; i < 100000 ; i++)
		asm volatile ("nop");
	i2c_short_write(CAM_I2C_ID,0x338C,0x279B);
	i2c_short_write(CAM_I2C_ID,0x3390,0x6440);
	for (i=0; i < 100000 ; i++)
     480:	103ffd1e 	bne	r2,zero,478 <init_camera+0x1f8>
		asm volatile ("nop");
	i2c_short_write(CAM_I2C_ID,0x338C,0xA103);
     484:	01a840d4 	movui	r6,41219
     488:	014ce304 	movi	r5,13196
     48c:	01001e04 	movi	r4,120
     490:	0000a240 	call	a24 <i2c_short_write>
	i2c_short_write(CAM_I2C_ID,0x3390,0x0005);
     494:	01800144 	movi	r6,5
     498:	014ce404 	movi	r5,13200
     49c:	01001e04 	movi	r4,120
     4a0:	0000a240 	call	a24 <i2c_short_write>
     4a4:	008000b4 	movhi	r2,2
     4a8:	10a1a804 	addi	r2,r2,-31072
	for (i=0; i < 100000 ; i++)
		asm volatile ("nop");
     4ac:	0001883a 	nop
     4b0:	10bfffc4 	addi	r2,r2,-1
	i2c_short_write(CAM_I2C_ID,0x3390,0x6440);
	for (i=0; i < 100000 ; i++)
		asm volatile ("nop");
	i2c_short_write(CAM_I2C_ID,0x338C,0xA103);
	i2c_short_write(CAM_I2C_ID,0x3390,0x0005);
	for (i=0; i < 100000 ; i++)
     4b4:	103ffd1e 	bne	r2,zero,4ac <init_camera+0x22c>
		asm volatile ("nop");
	i2c_short_write(CAM_I2C_ID,0x338C,0xA103);
     4b8:	01a840d4 	movui	r6,41219
     4bc:	014ce304 	movi	r5,13196
     4c0:	01001e04 	movi	r4,120
     4c4:	0000a240 	call	a24 <i2c_short_write>
	i2c_short_write(CAM_I2C_ID,0x3390,0x0006);
     4c8:	01800184 	movi	r6,6
     4cc:	014ce404 	movi	r5,13200
     4d0:	01001e04 	movi	r4,120
     4d4:	0000a240 	call	a24 <i2c_short_write>
     4d8:	008000b4 	movhi	r2,2
     4dc:	10a1a804 	addi	r2,r2,-31072
	for (i=0; i < 100000 ; i++)
		asm volatile ("nop");
     4e0:	0001883a 	nop
     4e4:	10bfffc4 	addi	r2,r2,-1
	i2c_short_write(CAM_I2C_ID,0x3390,0x0005);
	for (i=0; i < 100000 ; i++)
		asm volatile ("nop");
	i2c_short_write(CAM_I2C_ID,0x338C,0xA103);
	i2c_short_write(CAM_I2C_ID,0x3390,0x0006);
	for (i=0; i < 100000 ; i++)
     4e8:	103ffd1e 	bne	r2,zero,4e0 <init_camera+0x260>
     4ec:	04000074 	movhi	r16,1
     4f0:	84046d04 	addi	r16,r16,4532
     4f4:	84400084 	addi	r17,r16,2
     4f8:	84804a04 	addi	r18,r16,296
		asm volatile ("nop");
	for (i = 0 ; i < (sizeof(lens_roll_off_tbl)/4); i++) {
		i2c_short_write(CAM_I2C_ID,
     4fc:	8980000b 	ldhu	r6,0(r17)
     500:	8140000b 	ldhu	r5,0(r16)
     504:	01001e04 	movi	r4,120
     508:	84000104 	addi	r16,r16,4
     50c:	0000a240 	call	a24 <i2c_short_write>
     510:	8c400104 	addi	r17,r17,4
		asm volatile ("nop");
	i2c_short_write(CAM_I2C_ID,0x338C,0xA103);
	i2c_short_write(CAM_I2C_ID,0x3390,0x0006);
	for (i=0; i < 100000 ; i++)
		asm volatile ("nop");
	for (i = 0 ; i < (sizeof(lens_roll_off_tbl)/4); i++) {
     514:	943ff91e 	bne	r18,r16,4fc <init_camera+0x27c>
     518:	008003f4 	movhi	r2,15
     51c:	10909004 	addi	r2,r2,16960
		i2c_short_write(CAM_I2C_ID,
				lens_roll_off_tbl[i][0],
				lens_roll_off_tbl[i][1]);
	}
	for (i=0; i < 1000000 ; i++)
		asm volatile ("nop");
     520:	0001883a 	nop
     524:	10bfffc4 	addi	r2,r2,-1
	for (i = 0 ; i < (sizeof(lens_roll_off_tbl)/4); i++) {
		i2c_short_write(CAM_I2C_ID,
				lens_roll_off_tbl[i][0],
				lens_roll_off_tbl[i][1]);
	}
	for (i=0; i < 1000000 ; i++)
     528:	103ffd1e 	bne	r2,zero,520 <init_camera+0x2a0>
		asm volatile ("nop");
	i2c_short_write(CAM_I2C_ID,0x332E,0x0020);
     52c:	01800804 	movi	r6,32
     530:	014ccb84 	movi	r5,13102
     534:	01001e04 	movi	r4,120
     538:	0000a240 	call	a24 <i2c_short_write>
     53c:	008003f4 	movhi	r2,15
     540:	10909004 	addi	r2,r2,16960
	for (i=0; i < 1000000 ; i++)
		asm volatile ("nop");
     544:	0001883a 	nop
     548:	10bfffc4 	addi	r2,r2,-1
				lens_roll_off_tbl[i][1]);
	}
	for (i=0; i < 1000000 ; i++)
		asm volatile ("nop");
	i2c_short_write(CAM_I2C_ID,0x332E,0x0020);
	for (i=0; i < 1000000 ; i++)
     54c:	103ffd1e 	bne	r2,zero,544 <init_camera+0x2c4>
		asm volatile ("nop");
	i2c_short_write(CAM_I2C_ID,0x3404,0x0022); /* set RGB565 mode */
     550:	01800884 	movi	r6,34
     554:	014d0104 	movi	r5,13316
     558:	01001e04 	movi	r4,120
     55c:	0000a240 	call	a24 <i2c_short_write>
     560:	008003f4 	movhi	r2,15
     564:	10909004 	addi	r2,r2,16960
	for (i=0; i < 1000000 ; i++)
		asm volatile ("nop");
     568:	0001883a 	nop
     56c:	10bfffc4 	addi	r2,r2,-1
		asm volatile ("nop");
	i2c_short_write(CAM_I2C_ID,0x332E,0x0020);
	for (i=0; i < 1000000 ; i++)
		asm volatile ("nop");
	i2c_short_write(CAM_I2C_ID,0x3404,0x0022); /* set RGB565 mode */
	for (i=0; i < 1000000 ; i++)
     570:	103ffd1e 	bne	r2,zero,568 <init_camera+0x2e8>
		asm volatile ("nop");
	i2c_short_write(CAM_I2C_ID,0x3040,0x0027); /* mirror */
     574:	018009c4 	movi	r6,39
     578:	014c1004 	movi	r5,12352
     57c:	01001e04 	movi	r4,120
}
     580:	dfc00317 	ldw	ra,12(sp)
     584:	dc800217 	ldw	r18,8(sp)
     588:	dc400117 	ldw	r17,4(sp)
     58c:	dc000017 	ldw	r16,0(sp)
     590:	dec00404 	addi	sp,sp,16
	for (i=0; i < 1000000 ; i++)
		asm volatile ("nop");
	i2c_short_write(CAM_I2C_ID,0x3404,0x0022); /* set RGB565 mode */
	for (i=0; i < 1000000 ; i++)
		asm volatile ("nop");
	i2c_short_write(CAM_I2C_ID,0x3040,0x0027); /* mirror */
     594:	0000a241 	jmpi	a24 <i2c_short_write>

00000598 <cam_get_xsize>:
}

unsigned short cam_get_xsize(){
	unsigned char control_reg;
	do {
		control_reg = IORD_8DIRECT(CAM_CTRL_BASE,CAM_CONTROL_REG);
     598:	00c04034 	movhi	r3,256
     59c:	18c41304 	addi	r3,r3,4172
     5a0:	18800023 	ldbuio	r2,0(r3)
	} while ((control_reg&CAM_Profile_valid)==0);
     5a4:	1080010c 	andi	r2,r2,4
     5a8:	103ffd26 	beq	r2,zero,5a0 <cam_get_xsize+0x8>
	return IORD_16DIRECT(CAM_CTRL_BASE,CAM_BYTES_EACH_LINE_REG);
     5ac:	00804034 	movhi	r2,256
     5b0:	10841004 	addi	r2,r2,4160
}
     5b4:	1080002b 	ldhuio	r2,0(r2)
     5b8:	f800283a 	ret

000005bc <cam_get_ysize>:

unsigned short cam_get_ysize() {
	unsigned char control_reg;
	do {
		control_reg = IORD_8DIRECT(CAM_CTRL_BASE,CAM_CONTROL_REG);
     5bc:	00c04034 	movhi	r3,256
     5c0:	18c41304 	addi	r3,r3,4172
     5c4:	18800023 	ldbuio	r2,0(r3)
	} while ((control_reg&CAM_Profile_valid)==0);
     5c8:	1080010c 	andi	r2,r2,4
     5cc:	103ffd26 	beq	r2,zero,5c4 <cam_get_ysize+0x8>
	return IORD_16DIRECT(CAM_CTRL_BASE,CAM_LINES_EACH_FRAME_REG);
     5d0:	00804034 	movhi	r2,256
     5d4:	10841104 	addi	r2,r2,4164
}
     5d8:	1080002b 	ldhuio	r2,0(r2)
     5dc:	f800283a 	ret

000005e0 <cam_get_profiling>:

void cam_get_profiling() {
	unsigned char control_reg;
	do {
		control_reg = IORD_8DIRECT(CAM_CTRL_BASE,CAM_CONTROL_REG);
     5e0:	00c04034 	movhi	r3,256
     5e4:	18c41304 	addi	r3,r3,4172
     5e8:	18800023 	ldbuio	r2,0(r3)
	} while ((control_reg&CAM_Profile_valid)==0);
     5ec:	1080010c 	andi	r2,r2,4
     5f0:	103ffd26 	beq	r2,zero,5e8 <cam_get_profiling+0x8>
	printf("Nr. of bytes each line    : %d\n",
     5f4:	00804034 	movhi	r2,256
		control_reg = IORD_8DIRECT(CAM_CTRL_BASE,CAM_CONTROL_REG);
	} while ((control_reg&CAM_Profile_valid)==0);
	return IORD_16DIRECT(CAM_CTRL_BASE,CAM_LINES_EACH_FRAME_REG);
}

void cam_get_profiling() {
     5f8:	deffff04 	addi	sp,sp,-4
	unsigned char control_reg;
	do {
		control_reg = IORD_8DIRECT(CAM_CTRL_BASE,CAM_CONTROL_REG);
	} while ((control_reg&CAM_Profile_valid)==0);
	printf("Nr. of bytes each line    : %d\n",
     5fc:	10841004 	addi	r2,r2,4160
		control_reg = IORD_8DIRECT(CAM_CTRL_BASE,CAM_CONTROL_REG);
	} while ((control_reg&CAM_Profile_valid)==0);
	return IORD_16DIRECT(CAM_CTRL_BASE,CAM_LINES_EACH_FRAME_REG);
}

void cam_get_profiling() {
     600:	dfc00015 	stw	ra,0(sp)
	unsigned char control_reg;
	do {
		control_reg = IORD_8DIRECT(CAM_CTRL_BASE,CAM_CONTROL_REG);
	} while ((control_reg&CAM_Profile_valid)==0);
	printf("Nr. of bytes each line    : %d\n",
     604:	1140002b 	ldhuio	r5,0(r2)
     608:	01000074 	movhi	r4,1
     60c:	21045504 	addi	r4,r4,4436
     610:	297fffcc 	andi	r5,r5,65535
     614:	00027e40 	call	27e4 <printf>
			IORD_16DIRECT(CAM_CTRL_BASE,CAM_BYTES_EACH_LINE_REG));
	printf("Nr. of lines each frame   : %d\n",
     618:	00804034 	movhi	r2,256
     61c:	10841104 	addi	r2,r2,4164
     620:	1140002b 	ldhuio	r5,0(r2)
     624:	01000074 	movhi	r4,1
     628:	21045d04 	addi	r4,r4,4468
     62c:	297fffcc 	andi	r5,r5,65535
     630:	00027e40 	call	27e4 <printf>
			IORD_16DIRECT(CAM_CTRL_BASE,CAM_LINES_EACH_FRAME_REG));
	printf("Nr. of frames each second : %d\n",
     634:	00804034 	movhi	r2,256
     638:	10841204 	addi	r2,r2,4168
     63c:	1140002b 	ldhuio	r5,0(r2)
     640:	01000074 	movhi	r4,1
     644:	21046504 	addi	r4,r4,4500
     648:	297fffcc 	andi	r5,r5,65535
			IORD_16DIRECT(CAM_CTRL_BASE,CAM_FRAME_RATE_REG));
}
     64c:	dfc00017 	ldw	ra,0(sp)
     650:	dec00104 	addi	sp,sp,4
	} while ((control_reg&CAM_Profile_valid)==0);
	printf("Nr. of bytes each line    : %d\n",
			IORD_16DIRECT(CAM_CTRL_BASE,CAM_BYTES_EACH_LINE_REG));
	printf("Nr. of lines each frame   : %d\n",
			IORD_16DIRECT(CAM_CTRL_BASE,CAM_LINES_EACH_FRAME_REG));
	printf("Nr. of frames each second : %d\n",
     654:	00027e41 	jmpi	27e4 <printf>

00000658 <cam_set_image_pointer>:
			IORD_16DIRECT(CAM_CTRL_BASE,CAM_FRAME_RATE_REG));
}

void cam_set_image_pointer(char pointer_id,
		                   void *memory_pointer) {
	switch (pointer_id) {
     658:	21003fcc 	andi	r4,r4,255
     65c:	2100201c 	xori	r4,r4,128
     660:	213fe004 	addi	r4,r4,-128
     664:	00800044 	movi	r2,1
     668:	20801226 	beq	r4,r2,6b4 <cam_set_image_pointer+0x5c>
     66c:	11000c0e 	bge	r2,r4,6a0 <cam_set_image_pointer+0x48>
     670:	00800084 	movi	r2,2
     674:	20800626 	beq	r4,r2,690 <cam_set_image_pointer+0x38>
     678:	008000c4 	movi	r2,3
     67c:	2080111e 	bne	r4,r2,6c4 <cam_set_image_pointer+0x6c>
	            break;
	   case 1 : IOWR_32DIRECT(CAM_CTRL_BASE,CAM_ADDR_PNTR_2,(int)memory_pointer);
                break;
	   case 2 : IOWR_32DIRECT(CAM_CTRL_BASE,CAM_ADDR_PNTR_3,(int)memory_pointer);
                break;
	   case 3 : IOWR_32DIRECT(CAM_CTRL_BASE,CAM_ADDR_PNTR_4,(int)memory_pointer);
     680:	00804034 	movhi	r2,256
     684:	10841704 	addi	r2,r2,4188
     688:	11400035 	stwio	r5,0(r2)
     68c:	f800283a 	ret
	switch (pointer_id) {
	   case 0 : IOWR_32DIRECT(CAM_CTRL_BASE,CAM_ADDR_PNTR_1,(int)memory_pointer);
	            break;
	   case 1 : IOWR_32DIRECT(CAM_CTRL_BASE,CAM_ADDR_PNTR_2,(int)memory_pointer);
                break;
	   case 2 : IOWR_32DIRECT(CAM_CTRL_BASE,CAM_ADDR_PNTR_3,(int)memory_pointer);
     690:	00804034 	movhi	r2,256
     694:	10841604 	addi	r2,r2,4184
     698:	11400035 	stwio	r5,0(r2)
                break;
     69c:	f800283a 	ret
			IORD_16DIRECT(CAM_CTRL_BASE,CAM_FRAME_RATE_REG));
}

void cam_set_image_pointer(char pointer_id,
		                   void *memory_pointer) {
	switch (pointer_id) {
     6a0:	2000091e 	bne	r4,zero,6c8 <cam_set_image_pointer+0x70>
	   case 0 : IOWR_32DIRECT(CAM_CTRL_BASE,CAM_ADDR_PNTR_1,(int)memory_pointer);
     6a4:	00804034 	movhi	r2,256
     6a8:	10841404 	addi	r2,r2,4176
     6ac:	11400035 	stwio	r5,0(r2)
	            break;
     6b0:	f800283a 	ret
	   case 1 : IOWR_32DIRECT(CAM_CTRL_BASE,CAM_ADDR_PNTR_2,(int)memory_pointer);
     6b4:	00804034 	movhi	r2,256
     6b8:	10841504 	addi	r2,r2,4180
     6bc:	11400035 	stwio	r5,0(r2)
                break;
     6c0:	f800283a 	ret
     6c4:	f800283a 	ret
     6c8:	f800283a 	ret

000006cc <current_image_valid>:
	}
}

short current_image_valid() {
	unsigned short value;
	value = IORD_16DIRECT(CAM_CTRL_BASE,CAM_CONTROL_REG);
     6cc:	00804034 	movhi	r2,256
     6d0:	10841304 	addi	r2,r2,4172
     6d4:	1080002b 	ldhuio	r2,0(r2)
	return (value&CAM_Current_Image_Valid);
}
     6d8:	1080800c 	andi	r2,r2,512
     6dc:	f800283a 	ret

000006e0 <current_image_pointer>:

void *current_image_pointer() {
	return (void *)IORD_32DIRECT(CAM_CTRL_BASE,CAM_ADDR_PNTR_1);
     6e0:	00804034 	movhi	r2,256
     6e4:	10841404 	addi	r2,r2,4176
}
     6e8:	10800037 	ldwio	r2,0(r2)
     6ec:	f800283a 	ret

000006f0 <take_picture_blocking>:

void take_picture_blocking() {
	unsigned short value;
	IOWR_16DIRECT(CAM_CTRL_BASE,CAM_CONTROL_REG,CAM_Take_Picture);
     6f0:	00c04034 	movhi	r3,256
     6f4:	18c41304 	addi	r3,r3,4172
     6f8:	00800204 	movi	r2,8
     6fc:	1880002d 	sthio	r2,0(r3)
	do {
		value = IORD_16DIRECT(CAM_CTRL_BASE,CAM_CONTROL_REG);
     700:	1880002b 	ldhuio	r2,0(r3)
	} while ((value&CAM_Busy)!= 0);
     704:	1080020c 	andi	r2,r2,8
     708:	103ffd1e 	bne	r2,zero,700 <take_picture_blocking+0x10>
}
     70c:	f800283a 	ret

00000710 <enable_continues_mode>:

void enable_continues_mode() {
	IOWR_16DIRECT(CAM_CTRL_BASE,CAM_CONTROL_REG,CAM_Start_Continues);
     710:	00804034 	movhi	r2,256
     714:	10841304 	addi	r2,r2,4172
     718:	00c00404 	movi	r3,16
     71c:	10c0002d 	sthio	r3,0(r2)
     720:	f800283a 	ret

00000724 <new_image_available>:
}

char new_image_available() {
	unsigned short value;
	value = IORD_16DIRECT(CAM_CTRL_BASE,CAM_CONTROL_REG);
     724:	00c04034 	movhi	r3,256
     728:	18c41304 	addi	r3,r3,4172
     72c:	1880002b 	ldhuio	r2,0(r3)
	if ((value&CAM_IRQ_Generated)!=0) {
     730:	1080200c 	andi	r2,r2,128
     734:	1000021e 	bne	r2,zero,740 <new_image_available+0x1c>
		IOWR_16DIRECT(CAM_CTRL_BASE,CAM_CONTROL_REG,CAM_Clear_IRQ);
		return 1;
	} else return 0;
     738:	0005883a 	mov	r2,zero
}
     73c:	f800283a 	ret

char new_image_available() {
	unsigned short value;
	value = IORD_16DIRECT(CAM_CTRL_BASE,CAM_CONTROL_REG);
	if ((value&CAM_IRQ_Generated)!=0) {
		IOWR_16DIRECT(CAM_CTRL_BASE,CAM_CONTROL_REG,CAM_Clear_IRQ);
     740:	00804004 	movi	r2,256
     744:	1880002d 	sthio	r2,0(r3)
		return 1;
     748:	00800044 	movi	r2,1
     74c:	f800283a 	ret

00000750 <DIPSW_get_value>:

#include <system.h>
#include <io.h>

unsigned char DIPSW_get_value() {
	return IORD_8DIRECT(PIO_0_BASE,0)^0xFF;
     750:	00804034 	movhi	r2,256
     754:	10842804 	addi	r2,r2,4256
     758:	10800023 	ldbuio	r2,0(r2)
}
     75c:	0084303a 	nor	r2,zero,r2
     760:	f800283a 	ret

00000764 <conv_grayscale>:
		            int height) {
	int x,y,gray;
	unsigned short *pixels = (unsigned short *)picture , rgb;
	grayscale_width = width;
	grayscape_height = height;
	if (grayscale_array != NULL)
     764:	d0a70d17 	ldw	r2,-25548(gp)
int grayscale_width = 0;
int grayscape_height = 0;

void conv_grayscale(void *picture,
		            int width,
		            int height) {
     768:	defff404 	addi	sp,sp,-48
     76c:	dc400315 	stw	r17,12(sp)
     770:	dc000215 	stw	r16,8(sp)
     774:	dfc00b15 	stw	ra,44(sp)
     778:	df000a15 	stw	fp,40(sp)
     77c:	ddc00915 	stw	r23,36(sp)
     780:	dd800815 	stw	r22,32(sp)
     784:	dd400715 	stw	r21,28(sp)
     788:	dd000615 	stw	r20,24(sp)
     78c:	dcc00515 	stw	r19,20(sp)
     790:	dc800415 	stw	r18,16(sp)
     794:	d9800015 	stw	r6,0(sp)
	int x,y,gray;
	unsigned short *pixels = (unsigned short *)picture , rgb;
	grayscale_width = width;
     798:	d1670c15 	stw	r5,-25552(gp)
	grayscape_height = height;
     79c:	d1a70b15 	stw	r6,-25556(gp)
int grayscale_width = 0;
int grayscape_height = 0;

void conv_grayscale(void *picture,
		            int width,
		            int height) {
     7a0:	2821883a 	mov	r16,r5
     7a4:	2023883a 	mov	r17,r4
	int x,y,gray;
	unsigned short *pixels = (unsigned short *)picture , rgb;
	grayscale_width = width;
	grayscape_height = height;
	if (grayscale_array != NULL)
     7a8:	10000226 	beq	r2,zero,7b4 <conv_grayscale+0x50>
		free(grayscale_array);
     7ac:	1009883a 	mov	r4,r2
     7b0:	0001f940 	call	1f94 <free>
	grayscale_array = (unsigned char *) malloc(width*height);
     7b4:	d8c00017 	ldw	r3,0(sp)
     7b8:	80c9383a 	mul	r4,r16,r3
     7bc:	0001f800 	call	1f80 <malloc>
	for (y = 0 ; y < height ; y++) {
     7c0:	d8c00017 	ldw	r3,0(sp)
	unsigned short *pixels = (unsigned short *)picture , rgb;
	grayscale_width = width;
	grayscape_height = height;
	if (grayscale_array != NULL)
		free(grayscale_array);
	grayscale_array = (unsigned char *) malloc(width*height);
     7c4:	d0a70d15 	stw	r2,-25548(gp)
	for (y = 0 ; y < height ; y++) {
     7c8:	00c0310e 	bge	zero,r3,890 <conv_grayscale+0x12c>
			rgb = pixels[y*width+x];
			gray = (((rgb>>11)&0x1F)<<3)*21; // red part
			gray += (((rgb>>5)&0x3F)<<2)*72; // green part
			gray += (((rgb>>0)&0x1F)<<3)*7; // blue part
			gray /= 100;
			IOWR_8DIRECT(grayscale_array,y*width+x,gray);
     7cc:	05000074 	movhi	r20,1
     7d0:	8407883a 	add	r3,r16,r16
     7d4:	a5063e04 	addi	r20,r20,6392
     7d8:	d8c00115 	stw	r3,4(sp)
	grayscale_width = width;
	grayscape_height = height;
	if (grayscale_array != NULL)
		free(grayscale_array);
	grayscale_array = (unsigned char *) malloc(width*height);
	for (y = 0 ; y < height ; y++) {
     7dc:	802f883a 	mov	r23,r16
     7e0:	0025883a 	mov	r18,zero
			rgb = pixels[y*width+x];
			gray = (((rgb>>11)&0x1F)<<3)*21; // red part
			gray += (((rgb>>5)&0x3F)<<2)*72; // green part
			gray += (((rgb>>0)&0x1F)<<3)*7; // blue part
			gray /= 100;
			IOWR_8DIRECT(grayscale_array,y*width+x,gray);
     7e4:	070003c4 	movi	fp,15
	grayscape_height = height;
	if (grayscale_array != NULL)
		free(grayscale_array);
	grayscale_array = (unsigned char *) malloc(width*height);
	for (y = 0 ; y < height ; y++) {
		for (x = 0 ; x < width ; x++) {
     7e8:	0400230e 	bge	zero,r16,878 <conv_grayscale+0x114>
     7ec:	bc2bc83a 	sub	r21,r23,r16
     7f0:	882d883a 	mov	r22,r17
     7f4:	00000506 	br	80c <conv_grayscale+0xa8>
			rgb = pixels[y*width+x];
			gray = (((rgb>>11)&0x1F)<<3)*21; // red part
			gray += (((rgb>>5)&0x3F)<<2)*72; // green part
			gray += (((rgb>>0)&0x1F)<<3)*7; // blue part
			gray /= 100;
			IOWR_8DIRECT(grayscale_array,y*width+x,gray);
     7f8:	10800003 	ldbu	r2,0(r2)
     7fc:	98800025 	stbio	r2,0(r19)
     800:	ad400044 	addi	r21,r21,1
     804:	b5800084 	addi	r22,r22,2
	grayscape_height = height;
	if (grayscale_array != NULL)
		free(grayscale_array);
	grayscale_array = (unsigned char *) malloc(width*height);
	for (y = 0 ; y < height ; y++) {
		for (x = 0 ; x < width ; x++) {
     808:	bd401b26 	beq	r23,r21,878 <conv_grayscale+0x114>
			rgb = pixels[y*width+x];
			gray = (((rgb>>11)&0x1F)<<3)*21; // red part
     80c:	b100000b 	ldhu	r4,0(r22)
			gray += (((rgb>>5)&0x3F)<<2)*72; // green part
			gray += (((rgb>>0)&0x1F)<<3)*7; // blue part
			gray /= 100;
			IOWR_8DIRECT(grayscale_array,y*width+x,gray);
     810:	01401904 	movi	r5,100
		free(grayscale_array);
	grayscale_array = (unsigned char *) malloc(width*height);
	for (y = 0 ; y < height ; y++) {
		for (x = 0 ; x < width ; x++) {
			rgb = pixels[y*width+x];
			gray = (((rgb>>11)&0x1F)<<3)*21; // red part
     814:	2006d2fa 	srli	r3,r4,11
			gray += (((rgb>>5)&0x3F)<<2)*72; // green part
     818:	2004d17a 	srli	r2,r4,5
			gray += (((rgb>>0)&0x1F)<<3)*7; // blue part
     81c:	200890fa 	slli	r4,r4,3
		free(grayscale_array);
	grayscale_array = (unsigned char *) malloc(width*height);
	for (y = 0 ; y < height ; y++) {
		for (x = 0 ; x < width ; x++) {
			rgb = pixels[y*width+x];
			gray = (((rgb>>11)&0x1F)<<3)*21; // red part
     820:	180690fa 	slli	r3,r3,3
			gray += (((rgb>>5)&0x3F)<<2)*72; // green part
     824:	1085883a 	add	r2,r2,r2
     828:	1085883a 	add	r2,r2,r2
     82c:	10803fcc 	andi	r2,r2,255
		free(grayscale_array);
	grayscale_array = (unsigned char *) malloc(width*height);
	for (y = 0 ; y < height ; y++) {
		for (x = 0 ; x < width ; x++) {
			rgb = pixels[y*width+x];
			gray = (((rgb>>11)&0x1F)<<3)*21; // red part
     830:	18c00564 	muli	r3,r3,21
			gray += (((rgb>>5)&0x3F)<<2)*72; // green part
     834:	10801224 	muli	r2,r2,72
			gray += (((rgb>>0)&0x1F)<<3)*7; // blue part
     838:	21003fcc 	andi	r4,r4,255
     83c:	210001e4 	muli	r4,r4,7
	grayscale_array = (unsigned char *) malloc(width*height);
	for (y = 0 ; y < height ; y++) {
		for (x = 0 ; x < width ; x++) {
			rgb = pixels[y*width+x];
			gray = (((rgb>>11)&0x1F)<<3)*21; // red part
			gray += (((rgb>>5)&0x3F)<<2)*72; // green part
     840:	10c5883a 	add	r2,r2,r3
			gray += (((rgb>>0)&0x1F)<<3)*7; // blue part
			gray /= 100;
			IOWR_8DIRECT(grayscale_array,y*width+x,gray);
     844:	d0e70d17 	ldw	r3,-25548(gp)
	for (y = 0 ; y < height ; y++) {
		for (x = 0 ; x < width ; x++) {
			rgb = pixels[y*width+x];
			gray = (((rgb>>11)&0x1F)<<3)*21; // red part
			gray += (((rgb>>5)&0x3F)<<2)*72; // green part
			gray += (((rgb>>0)&0x1F)<<3)*7; // blue part
     848:	2089883a 	add	r4,r4,r2
			gray /= 100;
			IOWR_8DIRECT(grayscale_array,y*width+x,gray);
     84c:	2004913a 	slli	r2,r4,4
     850:	214eb03a 	or	r7,r4,r5
     854:	1d67883a 	add	r19,r3,r21
     858:	1144b03a 	or	r2,r2,r5
     85c:	1505883a 	add	r2,r2,r20
     860:	e1ffe52e 	bgeu	fp,r7,7f8 <conv_grayscale+0x94>
     864:	0001dcc0 	call	1dcc <__divsi3>
     868:	98800025 	stbio	r2,0(r19)
     86c:	ad400044 	addi	r21,r21,1
     870:	b5800084 	addi	r22,r22,2
	grayscape_height = height;
	if (grayscale_array != NULL)
		free(grayscale_array);
	grayscale_array = (unsigned char *) malloc(width*height);
	for (y = 0 ; y < height ; y++) {
		for (x = 0 ; x < width ; x++) {
     874:	bd7fe51e 	bne	r23,r21,80c <conv_grayscale+0xa8>
     878:	d8c00117 	ldw	r3,4(sp)
	grayscale_width = width;
	grayscape_height = height;
	if (grayscale_array != NULL)
		free(grayscale_array);
	grayscale_array = (unsigned char *) malloc(width*height);
	for (y = 0 ; y < height ; y++) {
     87c:	94800044 	addi	r18,r18,1
     880:	bc2f883a 	add	r23,r23,r16
     884:	88e3883a 	add	r17,r17,r3
     888:	d8c00017 	ldw	r3,0(sp)
     88c:	1cbfd61e 	bne	r3,r18,7e8 <conv_grayscale+0x84>
			gray += (((rgb>>0)&0x1F)<<3)*7; // blue part
			gray /= 100;
			IOWR_8DIRECT(grayscale_array,y*width+x,gray);
		}
	}
}
     890:	dfc00b17 	ldw	ra,44(sp)
     894:	df000a17 	ldw	fp,40(sp)
     898:	ddc00917 	ldw	r23,36(sp)
     89c:	dd800817 	ldw	r22,32(sp)
     8a0:	dd400717 	ldw	r21,28(sp)
     8a4:	dd000617 	ldw	r20,24(sp)
     8a8:	dcc00517 	ldw	r19,20(sp)
     8ac:	dc800417 	ldw	r18,16(sp)
     8b0:	dc400317 	ldw	r17,12(sp)
     8b4:	dc000217 	ldw	r16,8(sp)
     8b8:	dec00c04 	addi	sp,sp,48
     8bc:	f800283a 	ret

000008c0 <get_grayscale_width>:


int get_grayscale_width() {
	return grayscale_width;
}
     8c0:	d0a70c17 	ldw	r2,-25552(gp)
     8c4:	f800283a 	ret

000008c8 <get_grayscale_height>:

int get_grayscale_height() {
	return grayscape_height;
}
     8c8:	d0a70b17 	ldw	r2,-25556(gp)
     8cc:	f800283a 	ret

000008d0 <get_grayscale_picture>:

unsigned char *get_grayscale_picture() {
	return grayscale_array;
}
     8d0:	d0a70d17 	ldw	r2,-25548(gp)
     8d4:	f800283a 	ret

000008d8 <i2c_busy_wait>:
#include "i2c.h"

void i2c_busy_wait() {
	int busy;
	do {
		busy = IORD_32DIRECT(I2C_CTRL_BASE,I2C_CONTROL_REG);
     8d8:	00c04034 	movhi	r3,256
     8dc:	18c42704 	addi	r3,r3,4252
     8e0:	18800037 	ldwio	r2,0(r3)
	} while ((busy&(I2C_Busy_Flag|I2C_Autodetect_Busy_Flag))!=0);
     8e4:	108000cc 	andi	r2,r2,3
     8e8:	103ffd1e 	bne	r2,zero,8e0 <i2c_busy_wait+0x8>
}
     8ec:	f800283a 	ret

000008f0 <i2c_auto_detect>:
#include "i2c.h"

void i2c_busy_wait() {
	int busy;
	do {
		busy = IORD_32DIRECT(I2C_CTRL_BASE,I2C_CONTROL_REG);
     8f0:	01004034 	movhi	r4,256
     8f4:	21042704 	addi	r4,r4,4252
     8f8:	00c04034 	movhi	r3,256
     8fc:	18c42704 	addi	r3,r3,4252
     900:	20800037 	ldwio	r2,0(r4)
	} while ((busy&(I2C_Busy_Flag|I2C_Autodetect_Busy_Flag))!=0);
     904:	108000cc 	andi	r2,r2,3
     908:	103ffb1e 	bne	r2,zero,8f8 <i2c_auto_detect+0x8>
}

void i2c_auto_detect() {
	int nrdef,loop,value;
    i2c_busy_wait();
    IOWR_32DIRECT(I2C_CTRL_BASE,I2C_CONTROL_REG,I2C_Autodetect);
     90c:	00800104 	movi	r2,4
     910:	18800035 	stwio	r2,0(r3)
#include "i2c.h"

void i2c_busy_wait() {
	int busy;
	do {
		busy = IORD_32DIRECT(I2C_CTRL_BASE,I2C_CONTROL_REG);
     914:	18800037 	ldwio	r2,0(r3)
	} while ((busy&(I2C_Busy_Flag|I2C_Autodetect_Busy_Flag))!=0);
     918:	108000cc 	andi	r2,r2,3
     91c:	103ffd1e 	bne	r2,zero,914 <i2c_auto_detect+0x24>
void i2c_auto_detect() {
	int nrdef,loop,value;
    i2c_busy_wait();
    IOWR_32DIRECT(I2C_CTRL_BASE,I2C_CONTROL_REG,I2C_Autodetect);
    i2c_busy_wait();
    nrdef = IORD_32DIRECT(I2C_CTRL_BASE,I2C_ADDR_REG);
     920:	00804034 	movhi	r2,256
	do {
		busy = IORD_32DIRECT(I2C_CTRL_BASE,I2C_CONTROL_REG);
	} while ((busy&(I2C_Busy_Flag|I2C_Autodetect_Busy_Flag))!=0);
}

void i2c_auto_detect() {
     924:	defffc04 	addi	sp,sp,-16
	int nrdef,loop,value;
    i2c_busy_wait();
    IOWR_32DIRECT(I2C_CTRL_BASE,I2C_CONTROL_REG,I2C_Autodetect);
    i2c_busy_wait();
    nrdef = IORD_32DIRECT(I2C_CTRL_BASE,I2C_ADDR_REG);
     928:	10842504 	addi	r2,r2,4244
	do {
		busy = IORD_32DIRECT(I2C_CTRL_BASE,I2C_CONTROL_REG);
	} while ((busy&(I2C_Busy_Flag|I2C_Autodetect_Busy_Flag))!=0);
}

void i2c_auto_detect() {
     92c:	dfc00315 	stw	ra,12(sp)
     930:	dc800215 	stw	r18,8(sp)
     934:	dc400115 	stw	r17,4(sp)
     938:	dc000015 	stw	r16,0(sp)
	int nrdef,loop,value;
    i2c_busy_wait();
    IOWR_32DIRECT(I2C_CTRL_BASE,I2C_CONTROL_REG,I2C_Autodetect);
    i2c_busy_wait();
    nrdef = IORD_32DIRECT(I2C_CTRL_BASE,I2C_ADDR_REG);
     93c:	14800037 	ldwio	r18,0(r2)
    printf("Number of I2C devices detected: %d\n",nrdef);
     940:	01000074 	movhi	r4,1
     944:	21054d04 	addi	r4,r4,5428
     948:	900b883a 	mov	r5,r18
    for (loop = 0 ; loop < nrdef ; loop++) {
     94c:	0021883a 	mov	r16,zero
	int nrdef,loop,value;
    i2c_busy_wait();
    IOWR_32DIRECT(I2C_CTRL_BASE,I2C_CONTROL_REG,I2C_Autodetect);
    i2c_busy_wait();
    nrdef = IORD_32DIRECT(I2C_CTRL_BASE,I2C_ADDR_REG);
    printf("Number of I2C devices detected: %d\n",nrdef);
     950:	00027e40 	call	27e4 <printf>
    for (loop = 0 ; loop < nrdef ; loop++) {
     954:	04800a0e 	bge	zero,r18,980 <i2c_auto_detect+0x90>
    	IOWR_32DIRECT(I2C_CTRL_BASE,I2C_DEVICE_ID_REG,loop);
     958:	04404034 	movhi	r17,256
     95c:	8c442404 	addi	r17,r17,4240
     960:	8c000035 	stwio	r16,0(r17)
    	value = IORD_32DIRECT(I2C_CTRL_BASE,I2C_DEVICE_ID_REG);
    	printf("Device nr. %d has Address: 0x%02X\n",loop,value);
     964:	89800037 	ldwio	r6,0(r17)
     968:	01000074 	movhi	r4,1
     96c:	800b883a 	mov	r5,r16
     970:	21055604 	addi	r4,r4,5464
    i2c_busy_wait();
    IOWR_32DIRECT(I2C_CTRL_BASE,I2C_CONTROL_REG,I2C_Autodetect);
    i2c_busy_wait();
    nrdef = IORD_32DIRECT(I2C_CTRL_BASE,I2C_ADDR_REG);
    printf("Number of I2C devices detected: %d\n",nrdef);
    for (loop = 0 ; loop < nrdef ; loop++) {
     974:	84000044 	addi	r16,r16,1
    	IOWR_32DIRECT(I2C_CTRL_BASE,I2C_DEVICE_ID_REG,loop);
    	value = IORD_32DIRECT(I2C_CTRL_BASE,I2C_DEVICE_ID_REG);
    	printf("Device nr. %d has Address: 0x%02X\n",loop,value);
     978:	00027e40 	call	27e4 <printf>
    i2c_busy_wait();
    IOWR_32DIRECT(I2C_CTRL_BASE,I2C_CONTROL_REG,I2C_Autodetect);
    i2c_busy_wait();
    nrdef = IORD_32DIRECT(I2C_CTRL_BASE,I2C_ADDR_REG);
    printf("Number of I2C devices detected: %d\n",nrdef);
    for (loop = 0 ; loop < nrdef ; loop++) {
     97c:	943ff81e 	bne	r18,r16,960 <i2c_auto_detect+0x70>
    	IOWR_32DIRECT(I2C_CTRL_BASE,I2C_DEVICE_ID_REG,loop);
    	value = IORD_32DIRECT(I2C_CTRL_BASE,I2C_DEVICE_ID_REG);
    	printf("Device nr. %d has Address: 0x%02X\n",loop,value);
    }
}
     980:	dfc00317 	ldw	ra,12(sp)
     984:	dc800217 	ldw	r18,8(sp)
     988:	dc400117 	ldw	r17,4(sp)
     98c:	dc000017 	ldw	r16,0(sp)
     990:	dec00404 	addi	sp,sp,16
     994:	f800283a 	ret

00000998 <i2c_short_read>:
#include "i2c.h"

void i2c_busy_wait() {
	int busy;
	do {
		busy = IORD_32DIRECT(I2C_CTRL_BASE,I2C_CONTROL_REG);
     998:	01804034 	movhi	r6,256
     99c:	31842704 	addi	r6,r6,4252
     9a0:	00c04034 	movhi	r3,256
     9a4:	18c42704 	addi	r3,r3,4252
     9a8:	30800037 	ldwio	r2,0(r6)
	} while ((busy&(I2C_Busy_Flag|I2C_Autodetect_Busy_Flag))!=0);
     9ac:	108000cc 	andi	r2,r2,3
     9b0:	103ffb1e 	bne	r2,zero,9a0 <i2c_short_read+0x8>
}

unsigned int i2c_short_read(unsigned char device_id,
		                    unsigned short address) {
	i2c_busy_wait();
	IOWR_8DIRECT(I2C_CTRL_BASE,I2C_DEVICE_ID_REG,device_id);
     9b4:	00804034 	movhi	r2,256
     9b8:	21003fcc 	andi	r4,r4,255
     9bc:	10842404 	addi	r2,r2,4240
     9c0:	11000025 	stbio	r4,0(r2)
	IOWR_16DIRECT(I2C_CTRL_BASE,I2C_ADDR_REG,address);
     9c4:	00804034 	movhi	r2,256
     9c8:	10842504 	addi	r2,r2,4244
     9cc:	1140002d 	sthio	r5,0(r2)
	IOWR_8DIRECT(I2C_CTRL_BASE,I2C_CONTROL_REG,
     9d0:	008010c4 	movi	r2,67
     9d4:	18800025 	stbio	r2,0(r3)
#include "i2c.h"

void i2c_busy_wait() {
	int busy;
	do {
		busy = IORD_32DIRECT(I2C_CTRL_BASE,I2C_CONTROL_REG);
     9d8:	180b883a 	mov	r5,r3
     9dc:	00c04034 	movhi	r3,256
     9e0:	18c42704 	addi	r3,r3,4252
     9e4:	28800037 	ldwio	r2,0(r5)
	} while ((busy&(I2C_Busy_Flag|I2C_Autodetect_Busy_Flag))!=0);
     9e8:	108000cc 	andi	r2,r2,3
     9ec:	103ffb1e 	bne	r2,zero,9dc <i2c_short_read+0x44>
	IOWR_8DIRECT(I2C_CTRL_BASE,I2C_DEVICE_ID_REG,device_id);
	IOWR_16DIRECT(I2C_CTRL_BASE,I2C_ADDR_REG,address);
	IOWR_8DIRECT(I2C_CTRL_BASE,I2C_CONTROL_REG,
			     I2C_2Byte_Transfer|I2C_Start|I2C_Short_Transfer);
	i2c_busy_wait();
	IOWR_8DIRECT(I2C_CTRL_BASE,I2C_DEVICE_ID_REG,device_id+1);
     9f0:	00804034 	movhi	r2,256
     9f4:	21000044 	addi	r4,r4,1
     9f8:	10842404 	addi	r2,r2,4240
     9fc:	11000025 	stbio	r4,0(r2)
	IOWR_8DIRECT(I2C_CTRL_BASE,I2C_CONTROL_REG,
     a00:	00800884 	movi	r2,34
     a04:	18800025 	stbio	r2,0(r3)
#include "i2c.h"

void i2c_busy_wait() {
	int busy;
	do {
		busy = IORD_32DIRECT(I2C_CTRL_BASE,I2C_CONTROL_REG);
     a08:	18800037 	ldwio	r2,0(r3)
	} while ((busy&(I2C_Busy_Flag|I2C_Autodetect_Busy_Flag))!=0);
     a0c:	108000cc 	andi	r2,r2,3
     a10:	103ffd1e 	bne	r2,zero,a08 <i2c_short_read+0x70>
	i2c_busy_wait();
	IOWR_8DIRECT(I2C_CTRL_BASE,I2C_DEVICE_ID_REG,device_id+1);
	IOWR_8DIRECT(I2C_CTRL_BASE,I2C_CONTROL_REG,
			     I2C_Start|I2C_4Byte_Read);
	i2c_busy_wait();
	return IORD_32DIRECT(I2C_CTRL_BASE,I2C_DATA_REG);
     a14:	00804034 	movhi	r2,256
     a18:	10842604 	addi	r2,r2,4248
}
     a1c:	10800037 	ldwio	r2,0(r2)
     a20:	f800283a 	ret

00000a24 <i2c_short_write>:
#include "i2c.h"

void i2c_busy_wait() {
	int busy;
	do {
		busy = IORD_32DIRECT(I2C_CTRL_BASE,I2C_CONTROL_REG);
     a24:	01c04034 	movhi	r7,256
     a28:	39c42704 	addi	r7,r7,4252
     a2c:	00c04034 	movhi	r3,256
     a30:	18c42704 	addi	r3,r3,4252
     a34:	38800037 	ldwio	r2,0(r7)
	} while ((busy&(I2C_Busy_Flag|I2C_Autodetect_Busy_Flag))!=0);
     a38:	108000cc 	andi	r2,r2,3
     a3c:	103ffb1e 	bne	r2,zero,a2c <i2c_short_write+0x8>

void i2c_short_write(unsigned char device_id,
		             unsigned short address,
		             unsigned short data) {
	i2c_busy_wait();
	IOWR_8DIRECT(I2C_CTRL_BASE,I2C_DEVICE_ID_REG,device_id);
     a40:	00804034 	movhi	r2,256
     a44:	10842404 	addi	r2,r2,4240
     a48:	11000025 	stbio	r4,0(r2)
	IOWR_16DIRECT(I2C_CTRL_BASE,I2C_ADDR_REG,address);
     a4c:	00804034 	movhi	r2,256
     a50:	10842504 	addi	r2,r2,4244
     a54:	1140002d 	sthio	r5,0(r2)
	IOWR_16DIRECT(I2C_CTRL_BASE,I2C_DATA_REG,data);
     a58:	00804034 	movhi	r2,256
     a5c:	10842604 	addi	r2,r2,4248
     a60:	1180002d 	sthio	r6,0(r2)
	IOWR_8DIRECT(I2C_CTRL_BASE,I2C_CONTROL_REG,
     a64:	00801084 	movi	r2,66
     a68:	18800025 	stbio	r2,0(r3)
#include "i2c.h"

void i2c_busy_wait() {
	int busy;
	do {
		busy = IORD_32DIRECT(I2C_CTRL_BASE,I2C_CONTROL_REG);
     a6c:	18800037 	ldwio	r2,0(r3)
	} while ((busy&(I2C_Busy_Flag|I2C_Autodetect_Busy_Flag))!=0);
     a70:	108000cc 	andi	r2,r2,3
     a74:	103ffd1e 	bne	r2,zero,a6c <i2c_short_write+0x48>
	IOWR_16DIRECT(I2C_CTRL_BASE,I2C_ADDR_REG,address);
	IOWR_16DIRECT(I2C_CTRL_BASE,I2C_DATA_REG,data);
	IOWR_8DIRECT(I2C_CTRL_BASE,I2C_CONTROL_REG,
			     I2C_Start|I2C_Short_Transfer);
	i2c_busy_wait();
}
     a78:	f800283a 	ret

00000a7c <LCD_Write_Command>:

unsigned short LCD_width;
unsigned short LCD_height;

void LCD_Write_Command(int command) {
	IOWR_16DIRECT(LCD_CTRL_BASE,LCD_COMMAND_REG,command);
     a7c:	00804034 	movhi	r2,256
     a80:	10841804 	addi	r2,r2,4192
     a84:	1100002d 	sthio	r4,0(r2)
	usleep(10);
     a88:	01000284 	movi	r4,10
     a8c:	000ef241 	jmpi	ef24 <usleep>

00000a90 <LCD_Write_Data>:
}

void LCD_Write_Data(int data) {
	IOWR_16DIRECT(LCD_CTRL_BASE,LCD_DATA_REG,data);
     a90:	00804034 	movhi	r2,256
     a94:	10841904 	addi	r2,r2,4196
     a98:	1100002d 	sthio	r4,0(r2)
	usleep(10);
     a9c:	01000284 	movi	r4,10
     aa0:	000ef241 	jmpi	ef24 <usleep>

00000aa4 <init_LCD>:
}


void init_LCD() {
     aa4:	defff704 	addi	sp,sp,-36
	IOWR_16DIRECT(LCD_CTRL_BASE,LCD_CONTROL_REG,
     aa8:	00804034 	movhi	r2,256
	IOWR_16DIRECT(LCD_CTRL_BASE,LCD_DATA_REG,data);
	usleep(10);
}


void init_LCD() {
     aac:	dd400515 	stw	r21,20(sp)
     ab0:	dfc00815 	stw	ra,32(sp)
     ab4:	ddc00715 	stw	r23,28(sp)
     ab8:	dd800615 	stw	r22,24(sp)
     abc:	dd000415 	stw	r20,16(sp)
     ac0:	dcc00315 	stw	r19,12(sp)
     ac4:	dc800215 	stw	r18,8(sp)
     ac8:	dc400115 	stw	r17,4(sp)
     acc:	dc000015 	stw	r16,0(sp)
	IOWR_16DIRECT(LCD_CTRL_BASE,LCD_CONTROL_REG,
     ad0:	05400084 	movi	r21,2
     ad4:	10841a04 	addi	r2,r2,4200
     ad8:	1540002d 	sthio	r21,0(r2)

unsigned short LCD_width;
unsigned short LCD_height;

void LCD_Write_Command(int command) {
	IOWR_16DIRECT(LCD_CTRL_BASE,LCD_COMMAND_REG,command);
     adc:	04804034 	movhi	r18,256
     ae0:	94841804 	addi	r18,r18,4192
     ae4:	00800a04 	movi	r2,40
     ae8:	9080002d 	sthio	r2,0(r18)
	usleep(10);
     aec:	04000284 	movi	r16,10
     af0:	8009883a 	mov	r4,r16
     af4:	000ef240 	call	ef24 <usleep>

unsigned short LCD_width;
unsigned short LCD_height;

void LCD_Write_Command(int command) {
	IOWR_16DIRECT(LCD_CTRL_BASE,LCD_COMMAND_REG,command);
     af8:	05c00444 	movi	r23,17
     afc:	95c0002d 	sthio	r23,0(r18)
	usleep(10);
     b00:	8009883a 	mov	r4,r16
}

void LCD_Write_Data(int data) {
	IOWR_16DIRECT(LCD_CTRL_BASE,LCD_DATA_REG,data);
     b04:	04404034 	movhi	r17,256
     b08:	8c441904 	addi	r17,r17,4196
unsigned short LCD_width;
unsigned short LCD_height;

void LCD_Write_Command(int command) {
	IOWR_16DIRECT(LCD_CTRL_BASE,LCD_COMMAND_REG,command);
	usleep(10);
     b0c:	000ef240 	call	ef24 <usleep>
}

void LCD_Write_Data(int data) {
	IOWR_16DIRECT(LCD_CTRL_BASE,LCD_DATA_REG,data);
     b10:	0027883a 	mov	r19,zero
     b14:	8cc0002d 	sthio	r19,0(r17)
	usleep(10);
     b18:	8009883a 	mov	r4,r16
     b1c:	000ef240 	call	ef24 <usleep>

unsigned short LCD_width;
unsigned short LCD_height;

void LCD_Write_Command(int command) {
	IOWR_16DIRECT(LCD_CTRL_BASE,LCD_COMMAND_REG,command);
     b20:	008032c4 	movi	r2,203
     b24:	9080002d 	sthio	r2,0(r18)
	usleep(10);
     b28:	8009883a 	mov	r4,r16
     b2c:	000ef240 	call	ef24 <usleep>
}

void LCD_Write_Data(int data) {
	IOWR_16DIRECT(LCD_CTRL_BASE,LCD_DATA_REG,data);
     b30:	00800e44 	movi	r2,57
     b34:	8880002d 	sthio	r2,0(r17)
	usleep(10);
     b38:	8009883a 	mov	r4,r16
     b3c:	000ef240 	call	ef24 <usleep>
	IOWR_16DIRECT(LCD_CTRL_BASE,LCD_COMMAND_REG,command);
	usleep(10);
}

void LCD_Write_Data(int data) {
	IOWR_16DIRECT(LCD_CTRL_BASE,LCD_DATA_REG,data);
     b40:	00800b04 	movi	r2,44
     b44:	8880002d 	sthio	r2,0(r17)
	usleep(10);
     b48:	8009883a 	mov	r4,r16
     b4c:	000ef240 	call	ef24 <usleep>
	IOWR_16DIRECT(LCD_CTRL_BASE,LCD_COMMAND_REG,command);
	usleep(10);
}

void LCD_Write_Data(int data) {
	IOWR_16DIRECT(LCD_CTRL_BASE,LCD_DATA_REG,data);
     b50:	8cc0002d 	sthio	r19,0(r17)
	usleep(10);
     b54:	8009883a 	mov	r4,r16
     b58:	000ef240 	call	ef24 <usleep>
	IOWR_16DIRECT(LCD_CTRL_BASE,LCD_COMMAND_REG,command);
	usleep(10);
}

void LCD_Write_Data(int data) {
	IOWR_16DIRECT(LCD_CTRL_BASE,LCD_DATA_REG,data);
     b5c:	00800d04 	movi	r2,52
     b60:	8880002d 	sthio	r2,0(r17)
	usleep(10);
     b64:	8009883a 	mov	r4,r16
     b68:	000ef240 	call	ef24 <usleep>
	IOWR_16DIRECT(LCD_CTRL_BASE,LCD_COMMAND_REG,command);
	usleep(10);
}

void LCD_Write_Data(int data) {
	IOWR_16DIRECT(LCD_CTRL_BASE,LCD_DATA_REG,data);
     b6c:	8d40002d 	sthio	r21,0(r17)
	usleep(10);
     b70:	8009883a 	mov	r4,r16
     b74:	000ef240 	call	ef24 <usleep>

unsigned short LCD_width;
unsigned short LCD_height;

void LCD_Write_Command(int command) {
	IOWR_16DIRECT(LCD_CTRL_BASE,LCD_COMMAND_REG,command);
     b78:	008033c4 	movi	r2,207
     b7c:	9080002d 	sthio	r2,0(r18)
	usleep(10);
     b80:	8009883a 	mov	r4,r16
     b84:	000ef240 	call	ef24 <usleep>
}

void LCD_Write_Data(int data) {
	IOWR_16DIRECT(LCD_CTRL_BASE,LCD_DATA_REG,data);
     b88:	8cc0002d 	sthio	r19,0(r17)
	usleep(10);
     b8c:	8009883a 	mov	r4,r16
     b90:	000ef240 	call	ef24 <usleep>
	IOWR_16DIRECT(LCD_CTRL_BASE,LCD_COMMAND_REG,command);
	usleep(10);
}

void LCD_Write_Data(int data) {
	IOWR_16DIRECT(LCD_CTRL_BASE,LCD_DATA_REG,data);
     b94:	05802044 	movi	r22,129
     b98:	8d80002d 	sthio	r22,0(r17)
	usleep(10);
     b9c:	8009883a 	mov	r4,r16
     ba0:	000ef240 	call	ef24 <usleep>
	IOWR_16DIRECT(LCD_CTRL_BASE,LCD_COMMAND_REG,command);
	usleep(10);
}

void LCD_Write_Data(int data) {
	IOWR_16DIRECT(LCD_CTRL_BASE,LCD_DATA_REG,data);
     ba4:	00800c04 	movi	r2,48
     ba8:	8880002d 	sthio	r2,0(r17)
	usleep(10);
     bac:	8009883a 	mov	r4,r16
     bb0:	000ef240 	call	ef24 <usleep>

unsigned short LCD_width;
unsigned short LCD_height;

void LCD_Write_Command(int command) {
	IOWR_16DIRECT(LCD_CTRL_BASE,LCD_COMMAND_REG,command);
     bb4:	00803a04 	movi	r2,232
     bb8:	9080002d 	sthio	r2,0(r18)
	usleep(10);
     bbc:	8009883a 	mov	r4,r16
     bc0:	000ef240 	call	ef24 <usleep>
}

void LCD_Write_Data(int data) {
	IOWR_16DIRECT(LCD_CTRL_BASE,LCD_DATA_REG,data);
     bc4:	00802144 	movi	r2,133
     bc8:	8880002d 	sthio	r2,0(r17)
	usleep(10);
     bcc:	8009883a 	mov	r4,r16
     bd0:	000ef240 	call	ef24 <usleep>
	IOWR_16DIRECT(LCD_CTRL_BASE,LCD_COMMAND_REG,command);
	usleep(10);
}

void LCD_Write_Data(int data) {
	IOWR_16DIRECT(LCD_CTRL_BASE,LCD_DATA_REG,data);
     bd4:	05000044 	movi	r20,1
     bd8:	8d00002d 	sthio	r20,0(r17)
	usleep(10);
     bdc:	8009883a 	mov	r4,r16
     be0:	000ef240 	call	ef24 <usleep>
	IOWR_16DIRECT(LCD_CTRL_BASE,LCD_COMMAND_REG,command);
	usleep(10);
}

void LCD_Write_Data(int data) {
	IOWR_16DIRECT(LCD_CTRL_BASE,LCD_DATA_REG,data);
     be4:	00801e44 	movi	r2,121
     be8:	8880002d 	sthio	r2,0(r17)
	usleep(10);
     bec:	8009883a 	mov	r4,r16
     bf0:	000ef240 	call	ef24 <usleep>

unsigned short LCD_width;
unsigned short LCD_height;

void LCD_Write_Command(int command) {
	IOWR_16DIRECT(LCD_CTRL_BASE,LCD_COMMAND_REG,command);
     bf4:	00803a84 	movi	r2,234
     bf8:	9080002d 	sthio	r2,0(r18)
	usleep(10);
     bfc:	8009883a 	mov	r4,r16
     c00:	000ef240 	call	ef24 <usleep>
}

void LCD_Write_Data(int data) {
	IOWR_16DIRECT(LCD_CTRL_BASE,LCD_DATA_REG,data);
     c04:	8cc0002d 	sthio	r19,0(r17)
	usleep(10);
     c08:	8009883a 	mov	r4,r16
     c0c:	000ef240 	call	ef24 <usleep>
	IOWR_16DIRECT(LCD_CTRL_BASE,LCD_COMMAND_REG,command);
	usleep(10);
}

void LCD_Write_Data(int data) {
	IOWR_16DIRECT(LCD_CTRL_BASE,LCD_DATA_REG,data);
     c10:	8cc0002d 	sthio	r19,0(r17)
	usleep(10);
     c14:	8009883a 	mov	r4,r16
     c18:	000ef240 	call	ef24 <usleep>
	IOWR_16DIRECT(LCD_CTRL_BASE,LCD_COMMAND_REG,command);
	usleep(10);
}

void LCD_Write_Data(int data) {
	IOWR_16DIRECT(LCD_CTRL_BASE,LCD_DATA_REG,data);
     c1c:	00801904 	movi	r2,100
     c20:	8880002d 	sthio	r2,0(r17)
	usleep(10);
     c24:	8009883a 	mov	r4,r16
     c28:	000ef240 	call	ef24 <usleep>
	IOWR_16DIRECT(LCD_CTRL_BASE,LCD_COMMAND_REG,command);
	usleep(10);
}

void LCD_Write_Data(int data) {
	IOWR_16DIRECT(LCD_CTRL_BASE,LCD_DATA_REG,data);
     c2c:	008000c4 	movi	r2,3
     c30:	8880002d 	sthio	r2,0(r17)
	usleep(10);
     c34:	8009883a 	mov	r4,r16
     c38:	000ef240 	call	ef24 <usleep>
	IOWR_16DIRECT(LCD_CTRL_BASE,LCD_COMMAND_REG,command);
	usleep(10);
}

void LCD_Write_Data(int data) {
	IOWR_16DIRECT(LCD_CTRL_BASE,LCD_DATA_REG,data);
     c3c:	00800484 	movi	r2,18
     c40:	8880002d 	sthio	r2,0(r17)
	usleep(10);
     c44:	8009883a 	mov	r4,r16
     c48:	000ef240 	call	ef24 <usleep>
	IOWR_16DIRECT(LCD_CTRL_BASE,LCD_COMMAND_REG,command);
	usleep(10);
}

void LCD_Write_Data(int data) {
	IOWR_16DIRECT(LCD_CTRL_BASE,LCD_DATA_REG,data);
     c4c:	8d80002d 	sthio	r22,0(r17)
	usleep(10);
     c50:	8009883a 	mov	r4,r16
     c54:	000ef240 	call	ef24 <usleep>

unsigned short LCD_width;
unsigned short LCD_height;

void LCD_Write_Command(int command) {
	IOWR_16DIRECT(LCD_CTRL_BASE,LCD_COMMAND_REG,command);
     c58:	00803dc4 	movi	r2,247
     c5c:	9080002d 	sthio	r2,0(r18)
	usleep(10);
     c60:	8009883a 	mov	r4,r16
     c64:	000ef240 	call	ef24 <usleep>
}

void LCD_Write_Data(int data) {
	IOWR_16DIRECT(LCD_CTRL_BASE,LCD_DATA_REG,data);
     c68:	00800804 	movi	r2,32
     c6c:	8880002d 	sthio	r2,0(r17)
	usleep(10);
     c70:	8009883a 	mov	r4,r16
     c74:	000ef240 	call	ef24 <usleep>

unsigned short LCD_width;
unsigned short LCD_height;

void LCD_Write_Command(int command) {
	IOWR_16DIRECT(LCD_CTRL_BASE,LCD_COMMAND_REG,command);
     c78:	00803004 	movi	r2,192
     c7c:	9080002d 	sthio	r2,0(r18)
	usleep(10);
     c80:	8009883a 	mov	r4,r16
     c84:	000ef240 	call	ef24 <usleep>
}

void LCD_Write_Data(int data) {
	IOWR_16DIRECT(LCD_CTRL_BASE,LCD_DATA_REG,data);
     c88:	05800984 	movi	r22,38
     c8c:	8d80002d 	sthio	r22,0(r17)
	usleep(10);
     c90:	8009883a 	mov	r4,r16
     c94:	000ef240 	call	ef24 <usleep>
	IOWR_16DIRECT(LCD_CTRL_BASE,LCD_COMMAND_REG,command);
	usleep(10);
}

void LCD_Write_Data(int data) {
	IOWR_16DIRECT(LCD_CTRL_BASE,LCD_DATA_REG,data);
     c98:	00800104 	movi	r2,4
     c9c:	8880002d 	sthio	r2,0(r17)
	usleep(10);
     ca0:	8009883a 	mov	r4,r16
     ca4:	000ef240 	call	ef24 <usleep>

unsigned short LCD_width;
unsigned short LCD_height;

void LCD_Write_Command(int command) {
	IOWR_16DIRECT(LCD_CTRL_BASE,LCD_COMMAND_REG,command);
     ca8:	00803044 	movi	r2,193
     cac:	9080002d 	sthio	r2,0(r18)
	usleep(10);
     cb0:	8009883a 	mov	r4,r16
     cb4:	000ef240 	call	ef24 <usleep>
}

void LCD_Write_Data(int data) {
	IOWR_16DIRECT(LCD_CTRL_BASE,LCD_DATA_REG,data);
     cb8:	8dc0002d 	sthio	r23,0(r17)
	usleep(10);
     cbc:	8009883a 	mov	r4,r16
     cc0:	000ef240 	call	ef24 <usleep>

unsigned short LCD_width;
unsigned short LCD_height;

void LCD_Write_Command(int command) {
	IOWR_16DIRECT(LCD_CTRL_BASE,LCD_COMMAND_REG,command);
     cc4:	00803144 	movi	r2,197
     cc8:	9080002d 	sthio	r2,0(r18)
	usleep(10);
     ccc:	8009883a 	mov	r4,r16
     cd0:	000ef240 	call	ef24 <usleep>
}

void LCD_Write_Data(int data) {
	IOWR_16DIRECT(LCD_CTRL_BASE,LCD_DATA_REG,data);
     cd4:	00800d44 	movi	r2,53
     cd8:	8880002d 	sthio	r2,0(r17)
	usleep(10);
     cdc:	8009883a 	mov	r4,r16
     ce0:	000ef240 	call	ef24 <usleep>
	IOWR_16DIRECT(LCD_CTRL_BASE,LCD_COMMAND_REG,command);
	usleep(10);
}

void LCD_Write_Data(int data) {
	IOWR_16DIRECT(LCD_CTRL_BASE,LCD_DATA_REG,data);
     ce4:	00800f84 	movi	r2,62
     ce8:	8880002d 	sthio	r2,0(r17)
	usleep(10);
     cec:	8009883a 	mov	r4,r16
     cf0:	000ef240 	call	ef24 <usleep>

unsigned short LCD_width;
unsigned short LCD_height;

void LCD_Write_Command(int command) {
	IOWR_16DIRECT(LCD_CTRL_BASE,LCD_COMMAND_REG,command);
     cf4:	008031c4 	movi	r2,199
     cf8:	9080002d 	sthio	r2,0(r18)
	usleep(10);
     cfc:	8009883a 	mov	r4,r16
     d00:	000ef240 	call	ef24 <usleep>
}

void LCD_Write_Data(int data) {
	IOWR_16DIRECT(LCD_CTRL_BASE,LCD_DATA_REG,data);
     d04:	00802f84 	movi	r2,190
     d08:	8880002d 	sthio	r2,0(r17)
	usleep(10);
     d0c:	8009883a 	mov	r4,r16
     d10:	000ef240 	call	ef24 <usleep>

unsigned short LCD_width;
unsigned short LCD_height;

void LCD_Write_Command(int command) {
	IOWR_16DIRECT(LCD_CTRL_BASE,LCD_COMMAND_REG,command);
     d14:	00802c44 	movi	r2,177
     d18:	9080002d 	sthio	r2,0(r18)
	usleep(10);
     d1c:	8009883a 	mov	r4,r16
     d20:	000ef240 	call	ef24 <usleep>
}

void LCD_Write_Data(int data) {
	IOWR_16DIRECT(LCD_CTRL_BASE,LCD_DATA_REG,data);
     d24:	8cc0002d 	sthio	r19,0(r17)
	usleep(10);
     d28:	8009883a 	mov	r4,r16
     d2c:	000ef240 	call	ef24 <usleep>
	IOWR_16DIRECT(LCD_CTRL_BASE,LCD_COMMAND_REG,command);
	usleep(10);
}

void LCD_Write_Data(int data) {
	IOWR_16DIRECT(LCD_CTRL_BASE,LCD_DATA_REG,data);
     d30:	00800404 	movi	r2,16
     d34:	8880002d 	sthio	r2,0(r17)
	usleep(10);
     d38:	8009883a 	mov	r4,r16
     d3c:	000ef240 	call	ef24 <usleep>

unsigned short LCD_width;
unsigned short LCD_height;

void LCD_Write_Command(int command) {
	IOWR_16DIRECT(LCD_CTRL_BASE,LCD_COMMAND_REG,command);
     d40:	00800e84 	movi	r2,58
     d44:	9080002d 	sthio	r2,0(r18)
	usleep(10);
     d48:	8009883a 	mov	r4,r16
     d4c:	000ef240 	call	ef24 <usleep>
}

void LCD_Write_Data(int data) {
	IOWR_16DIRECT(LCD_CTRL_BASE,LCD_DATA_REG,data);
     d50:	00801544 	movi	r2,85
     d54:	8880002d 	sthio	r2,0(r17)
	usleep(10);
     d58:	8009883a 	mov	r4,r16
     d5c:	000ef240 	call	ef24 <usleep>

unsigned short LCD_width;
unsigned short LCD_height;

void LCD_Write_Command(int command) {
	IOWR_16DIRECT(LCD_CTRL_BASE,LCD_COMMAND_REG,command);
     d60:	00802d84 	movi	r2,182
     d64:	9080002d 	sthio	r2,0(r18)
	usleep(10);
     d68:	8009883a 	mov	r4,r16
     d6c:	000ef240 	call	ef24 <usleep>
}

void LCD_Write_Data(int data) {
	IOWR_16DIRECT(LCD_CTRL_BASE,LCD_DATA_REG,data);
     d70:	8c00002d 	sthio	r16,0(r17)
	usleep(10);
     d74:	8009883a 	mov	r4,r16
     d78:	000ef240 	call	ef24 <usleep>
	IOWR_16DIRECT(LCD_CTRL_BASE,LCD_COMMAND_REG,command);
	usleep(10);
}

void LCD_Write_Data(int data) {
	IOWR_16DIRECT(LCD_CTRL_BASE,LCD_DATA_REG,data);
     d7c:	00802884 	movi	r2,162
     d80:	8880002d 	sthio	r2,0(r17)
	usleep(10);
     d84:	8009883a 	mov	r4,r16
     d88:	000ef240 	call	ef24 <usleep>

unsigned short LCD_width;
unsigned short LCD_height;

void LCD_Write_Command(int command) {
	IOWR_16DIRECT(LCD_CTRL_BASE,LCD_COMMAND_REG,command);
     d8c:	00803c84 	movi	r2,242
     d90:	9080002d 	sthio	r2,0(r18)
	usleep(10);
     d94:	8009883a 	mov	r4,r16
     d98:	000ef240 	call	ef24 <usleep>
}

void LCD_Write_Data(int data) {
	IOWR_16DIRECT(LCD_CTRL_BASE,LCD_DATA_REG,data);
     d9c:	8d40002d 	sthio	r21,0(r17)
	usleep(10);
     da0:	8009883a 	mov	r4,r16
     da4:	000ef240 	call	ef24 <usleep>

unsigned short LCD_width;
unsigned short LCD_height;

void LCD_Write_Command(int command) {
	IOWR_16DIRECT(LCD_CTRL_BASE,LCD_COMMAND_REG,command);
     da8:	9580002d 	sthio	r22,0(r18)
	usleep(10);
     dac:	8009883a 	mov	r4,r16
     db0:	000ef240 	call	ef24 <usleep>
}

void LCD_Write_Data(int data) {
	IOWR_16DIRECT(LCD_CTRL_BASE,LCD_DATA_REG,data);
     db4:	8d00002d 	sthio	r20,0(r17)
	usleep(10);
     db8:	8009883a 	mov	r4,r16
     dbc:	000ef240 	call	ef24 <usleep>

unsigned short LCD_width;
unsigned short LCD_height;

void LCD_Write_Command(int command) {
	IOWR_16DIRECT(LCD_CTRL_BASE,LCD_COMMAND_REG,command);
     dc0:	00800d84 	movi	r2,54
     dc4:	9080002d 	sthio	r2,0(r18)
	usleep(10);
     dc8:	8009883a 	mov	r4,r16
     dcc:	000ef240 	call	ef24 <usleep>
}

void LCD_Write_Data(int data) {
	IOWR_16DIRECT(LCD_CTRL_BASE,LCD_DATA_REG,data);
     dd0:	8cc0002d 	sthio	r19,0(r17)
	usleep(10);
     dd4:	8009883a 	mov	r4,r16
     dd8:	000ef240 	call	ef24 <usleep>

unsigned short LCD_width;
unsigned short LCD_height;

void LCD_Write_Command(int command) {
	IOWR_16DIRECT(LCD_CTRL_BASE,LCD_COMMAND_REG,command);
     ddc:	00800a84 	movi	r2,42
     de0:	9080002d 	sthio	r2,0(r18)
	usleep(10);
     de4:	8009883a 	mov	r4,r16
     de8:	000ef240 	call	ef24 <usleep>
}

void LCD_Write_Data(int data) {
	IOWR_16DIRECT(LCD_CTRL_BASE,LCD_DATA_REG,data);
     dec:	8cc0002d 	sthio	r19,0(r17)
	usleep(10);
     df0:	8009883a 	mov	r4,r16
     df4:	000ef240 	call	ef24 <usleep>
	IOWR_16DIRECT(LCD_CTRL_BASE,LCD_COMMAND_REG,command);
	usleep(10);
}

void LCD_Write_Data(int data) {
	IOWR_16DIRECT(LCD_CTRL_BASE,LCD_DATA_REG,data);
     df8:	8cc0002d 	sthio	r19,0(r17)
	usleep(10);
     dfc:	8009883a 	mov	r4,r16
     e00:	000ef240 	call	ef24 <usleep>
	IOWR_16DIRECT(LCD_CTRL_BASE,LCD_COMMAND_REG,command);
	usleep(10);
}

void LCD_Write_Data(int data) {
	IOWR_16DIRECT(LCD_CTRL_BASE,LCD_DATA_REG,data);
     e04:	8cc0002d 	sthio	r19,0(r17)
	usleep(10);
     e08:	8009883a 	mov	r4,r16
     e0c:	000ef240 	call	ef24 <usleep>
	IOWR_16DIRECT(LCD_CTRL_BASE,LCD_COMMAND_REG,command);
	usleep(10);
}

void LCD_Write_Data(int data) {
	IOWR_16DIRECT(LCD_CTRL_BASE,LCD_DATA_REG,data);
     e10:	00803bc4 	movi	r2,239
     e14:	8880002d 	sthio	r2,0(r17)
	usleep(10);
     e18:	8009883a 	mov	r4,r16
     e1c:	000ef240 	call	ef24 <usleep>

unsigned short LCD_width;
unsigned short LCD_height;

void LCD_Write_Command(int command) {
	IOWR_16DIRECT(LCD_CTRL_BASE,LCD_COMMAND_REG,command);
     e20:	00800ac4 	movi	r2,43
     e24:	9080002d 	sthio	r2,0(r18)
	usleep(10);
     e28:	8009883a 	mov	r4,r16
     e2c:	000ef240 	call	ef24 <usleep>
}

void LCD_Write_Data(int data) {
	IOWR_16DIRECT(LCD_CTRL_BASE,LCD_DATA_REG,data);
     e30:	8cc0002d 	sthio	r19,0(r17)
	usleep(10);
     e34:	8009883a 	mov	r4,r16
     e38:	000ef240 	call	ef24 <usleep>
	IOWR_16DIRECT(LCD_CTRL_BASE,LCD_COMMAND_REG,command);
	usleep(10);
}

void LCD_Write_Data(int data) {
	IOWR_16DIRECT(LCD_CTRL_BASE,LCD_DATA_REG,data);
     e3c:	8cc0002d 	sthio	r19,0(r17)
	usleep(10);
     e40:	8009883a 	mov	r4,r16
     e44:	000ef240 	call	ef24 <usleep>
	IOWR_16DIRECT(LCD_CTRL_BASE,LCD_COMMAND_REG,command);
	usleep(10);
}

void LCD_Write_Data(int data) {
	IOWR_16DIRECT(LCD_CTRL_BASE,LCD_DATA_REG,data);
     e48:	8d00002d 	sthio	r20,0(r17)
	usleep(10);
     e4c:	8009883a 	mov	r4,r16
     e50:	000ef240 	call	ef24 <usleep>
	IOWR_16DIRECT(LCD_CTRL_BASE,LCD_COMMAND_REG,command);
	usleep(10);
}

void LCD_Write_Data(int data) {
	IOWR_16DIRECT(LCD_CTRL_BASE,LCD_DATA_REG,data);
     e54:	00800fc4 	movi	r2,63
     e58:	8880002d 	sthio	r2,0(r17)
	usleep(10);
     e5c:	8009883a 	mov	r4,r16
     e60:	000ef240 	call	ef24 <usleep>
	LCD_Write_Command(0x002B);	//pageaddressset
	LCD_Write_Data(0x0000);
	LCD_Write_Data(0x0000);		//start0x0000
	LCD_Write_Data(0x0001);
	LCD_Write_Data(0x003F);		//end0x013F
	IOWR_32DIRECT(LCD_CTRL_BASE,LCD_NR_PIX_LINE_REG,240);
     e64:	00c04034 	movhi	r3,256
     e68:	00803c04 	movi	r2,240
     e6c:	18c41d04 	addi	r3,r3,4212
     e70:	18800035 	stwio	r2,0(r3)
	LCD_width = 240;
     e74:	d0a70e8d 	sth	r2,-25542(gp)
	LCD_height = 320;
     e78:	00805004 	movi	r2,320
     e7c:	d0a70e0d 	sth	r2,-25544(gp)

unsigned short LCD_width;
unsigned short LCD_height;

void LCD_Write_Command(int command) {
	IOWR_16DIRECT(LCD_CTRL_BASE,LCD_COMMAND_REG,command);
     e80:	00800a44 	movi	r2,41
     e84:	9080002d 	sthio	r2,0(r18)
	usleep(10);
     e88:	8009883a 	mov	r4,r16
	LCD_height = 320;


	LCD_Write_Command(0x0029);

}
     e8c:	dfc00817 	ldw	ra,32(sp)
     e90:	ddc00717 	ldw	r23,28(sp)
     e94:	dd800617 	ldw	r22,24(sp)
     e98:	dd400517 	ldw	r21,20(sp)
     e9c:	dd000417 	ldw	r20,16(sp)
     ea0:	dcc00317 	ldw	r19,12(sp)
     ea4:	dc800217 	ldw	r18,8(sp)
     ea8:	dc400117 	ldw	r17,4(sp)
     eac:	dc000017 	ldw	r16,0(sp)
     eb0:	dec00904 	addi	sp,sp,36
unsigned short LCD_width;
unsigned short LCD_height;

void LCD_Write_Command(int command) {
	IOWR_16DIRECT(LCD_CTRL_BASE,LCD_COMMAND_REG,command);
	usleep(10);
     eb4:	000ef241 	jmpi	ef24 <usleep>

00000eb8 <transfer_LCD_no_dma>:

}

void transfer_LCD_no_dma( void* array,
		                  int width,
		                  int height) {
     eb8:	defffb04 	addi	sp,sp,-20
	unsigned short *data_array = (unsigned short *)array;
	unsigned int pixels;
	IOWR_32DIRECT(LCD_CTRL_BASE,LCD_Pict_width_reg,width);
     ebc:	00804034 	movhi	r2,256

}

void transfer_LCD_no_dma( void* array,
		                  int width,
		                  int height) {
     ec0:	dc000015 	stw	r16,0(sp)
     ec4:	dfc00415 	stw	ra,16(sp)
     ec8:	dcc00315 	stw	r19,12(sp)
     ecc:	dc800215 	stw	r18,8(sp)
     ed0:	dc400115 	stw	r17,4(sp)
     ed4:	2021883a 	mov	r16,r4
	unsigned short *data_array = (unsigned short *)array;
	unsigned int pixels;
	IOWR_32DIRECT(LCD_CTRL_BASE,LCD_Pict_width_reg,width);
     ed8:	10841e04 	addi	r2,r2,4216
     edc:	11400035 	stwio	r5,0(r2)

unsigned short LCD_width;
unsigned short LCD_height;

void LCD_Write_Command(int command) {
	IOWR_16DIRECT(LCD_CTRL_BASE,LCD_COMMAND_REG,command);
     ee0:	00804034 	movhi	r2,256
     ee4:	10841804 	addi	r2,r2,4192
     ee8:	00c00b04 	movi	r3,44
     eec:	10c0002d 	sthio	r3,0(r2)
		                  int height) {
	unsigned short *data_array = (unsigned short *)array;
	unsigned int pixels;
	IOWR_32DIRECT(LCD_CTRL_BASE,LCD_Pict_width_reg,width);
	LCD_Write_Command(0x002C); 	//command to begin writing to frame memory
	for (pixels = 0 ; pixels < width*height ; pixels++)
     ef0:	29a5383a 	mul	r18,r5,r6
unsigned short LCD_width;
unsigned short LCD_height;

void LCD_Write_Command(int command) {
	IOWR_16DIRECT(LCD_CTRL_BASE,LCD_COMMAND_REG,command);
	usleep(10);
     ef4:	01000284 	movi	r4,10
     ef8:	000ef240 	call	ef24 <usleep>
		                  int height) {
	unsigned short *data_array = (unsigned short *)array;
	unsigned int pixels;
	IOWR_32DIRECT(LCD_CTRL_BASE,LCD_Pict_width_reg,width);
	LCD_Write_Command(0x002C); 	//command to begin writing to frame memory
	for (pixels = 0 ; pixels < width*height ; pixels++)
     efc:	90000a26 	beq	r18,zero,f28 <transfer_LCD_no_dma+0x70>
	IOWR_16DIRECT(LCD_CTRL_BASE,LCD_COMMAND_REG,command);
	usleep(10);
}

void LCD_Write_Data(int data) {
	IOWR_16DIRECT(LCD_CTRL_BASE,LCD_DATA_REG,data);
     f00:	04c04034 	movhi	r19,256
     f04:	9cc41904 	addi	r19,r19,4196
		                  int height) {
	unsigned short *data_array = (unsigned short *)array;
	unsigned int pixels;
	IOWR_32DIRECT(LCD_CTRL_BASE,LCD_Pict_width_reg,width);
	LCD_Write_Command(0x002C); 	//command to begin writing to frame memory
	for (pixels = 0 ; pixels < width*height ; pixels++)
     f08:	0023883a 	mov	r17,zero
	IOWR_16DIRECT(LCD_CTRL_BASE,LCD_COMMAND_REG,command);
	usleep(10);
}

void LCD_Write_Data(int data) {
	IOWR_16DIRECT(LCD_CTRL_BASE,LCD_DATA_REG,data);
     f0c:	8080000b 	ldhu	r2,0(r16)
     f10:	9880002d 	sthio	r2,0(r19)
	usleep(10);
     f14:	01000284 	movi	r4,10
		                  int height) {
	unsigned short *data_array = (unsigned short *)array;
	unsigned int pixels;
	IOWR_32DIRECT(LCD_CTRL_BASE,LCD_Pict_width_reg,width);
	LCD_Write_Command(0x002C); 	//command to begin writing to frame memory
	for (pixels = 0 ; pixels < width*height ; pixels++)
     f18:	8c400044 	addi	r17,r17,1
	usleep(10);
}

void LCD_Write_Data(int data) {
	IOWR_16DIRECT(LCD_CTRL_BASE,LCD_DATA_REG,data);
	usleep(10);
     f1c:	000ef240 	call	ef24 <usleep>
     f20:	84000084 	addi	r16,r16,2
		                  int height) {
	unsigned short *data_array = (unsigned short *)array;
	unsigned int pixels;
	IOWR_32DIRECT(LCD_CTRL_BASE,LCD_Pict_width_reg,width);
	LCD_Write_Command(0x002C); 	//command to begin writing to frame memory
	for (pixels = 0 ; pixels < width*height ; pixels++)
     f24:	8cbff91e 	bne	r17,r18,f0c <transfer_LCD_no_dma+0x54>
		LCD_Write_Data(data_array[pixels]);
}
     f28:	dfc00417 	ldw	ra,16(sp)
     f2c:	dcc00317 	ldw	r19,12(sp)
     f30:	dc800217 	ldw	r18,8(sp)
     f34:	dc400117 	ldw	r17,4(sp)
     f38:	dc000017 	ldw	r16,0(sp)
     f3c:	dec00504 	addi	sp,sp,20
     f40:	f800283a 	ret

00000f44 <transfer_LCD_with_dma>:

void transfer_LCD_with_dma(void *array,
		                   int width,
		                   int height,
		                   char grayscale) {
	unsigned short real_height = (height > LCD_height) ? LCD_height : height;
     f44:	d0a70e0b 	ldhu	r2,-25544(gp)
     f48:	3080010e 	bge	r6,r2,f50 <transfer_LCD_with_dma+0xc>
     f4c:	3005883a 	mov	r2,r6
	unsigned short real_width = (width > LCD_width) ? LCD_width : width;
     f50:	d0e70e8b 	ldhu	r3,-25542(gp)
     f54:	28c0010e 	bge	r5,r3,f5c <transfer_LCD_with_dma+0x18>
     f58:	2807883a 	mov	r3,r5
	IOWR_32DIRECT(LCD_CTRL_BASE,LCD_Pict_width_reg,width);
     f5c:	01804034 	movhi	r6,256
     f60:	31841e04 	addi	r6,r6,4216
     f64:	31400035 	stwio	r5,0(r6)
	IOWR_32DIRECT(LCD_CTRL_BASE,LCD_IMAGE_POINTER_REG,(int)array);
     f68:	01404034 	movhi	r5,256
     f6c:	29441b04 	addi	r5,r5,4204
     f70:	29000035 	stwio	r4,0(r5)
	IOWR_32DIRECT(LCD_CTRL_BASE,LCD_IMAGE_SIZE_REG,real_width*real_height);
     f74:	18ffffcc 	andi	r3,r3,65535
     f78:	10bfffcc 	andi	r2,r2,65535
     f7c:	1885383a 	mul	r2,r3,r2
     f80:	00c04034 	movhi	r3,256
     f84:	18c41c04 	addi	r3,r3,4208
     f88:	18800035 	stwio	r2,0(r3)
	if (grayscale==0)
     f8c:	39c03fcc 	andi	r7,r7,255
     f90:	39c0201c 	xori	r7,r7,128
		IOWR_16DIRECT(LCD_CTRL_BASE,LCD_CONTROL_REG,
     f94:	00804034 	movhi	r2,256
	unsigned short real_height = (height > LCD_height) ? LCD_height : height;
	unsigned short real_width = (width > LCD_width) ? LCD_width : width;
	IOWR_32DIRECT(LCD_CTRL_BASE,LCD_Pict_width_reg,width);
	IOWR_32DIRECT(LCD_CTRL_BASE,LCD_IMAGE_POINTER_REG,(int)array);
	IOWR_32DIRECT(LCD_CTRL_BASE,LCD_IMAGE_SIZE_REG,real_width*real_height);
	if (grayscale==0)
     f98:	39ffe004 	addi	r7,r7,-128
		IOWR_16DIRECT(LCD_CTRL_BASE,LCD_CONTROL_REG,
     f9c:	10841a04 	addi	r2,r2,4200
	unsigned short real_height = (height > LCD_height) ? LCD_height : height;
	unsigned short real_width = (width > LCD_width) ? LCD_width : width;
	IOWR_32DIRECT(LCD_CTRL_BASE,LCD_Pict_width_reg,width);
	IOWR_32DIRECT(LCD_CTRL_BASE,LCD_IMAGE_POINTER_REG,(int)array);
	IOWR_32DIRECT(LCD_CTRL_BASE,LCD_IMAGE_SIZE_REG,real_width*real_height);
	if (grayscale==0)
     fa0:	38000326 	beq	r7,zero,fb0 <transfer_LCD_with_dma+0x6c>
		IOWR_16DIRECT(LCD_CTRL_BASE,LCD_CONTROL_REG,
				         LCD_Sixteen_Bit|LCD_Start_DMA|
				         LCD_RGB565_Mode|LCD_Color_Image);
	else
		IOWR_16DIRECT(LCD_CTRL_BASE,LCD_CONTROL_REG,
     fa4:	00c04404 	movi	r3,272
     fa8:	10c0002d 	sthio	r3,0(r2)
     fac:	f800283a 	ret
	unsigned short real_width = (width > LCD_width) ? LCD_width : width;
	IOWR_32DIRECT(LCD_CTRL_BASE,LCD_Pict_width_reg,width);
	IOWR_32DIRECT(LCD_CTRL_BASE,LCD_IMAGE_POINTER_REG,(int)array);
	IOWR_32DIRECT(LCD_CTRL_BASE,LCD_IMAGE_SIZE_REG,real_width*real_height);
	if (grayscale==0)
		IOWR_16DIRECT(LCD_CTRL_BASE,LCD_CONTROL_REG,
     fb0:	00c04004 	movi	r3,256
     fb4:	10c0002d 	sthio	r3,0(r2)
     fb8:	f800283a 	ret

00000fbc <main>:
alt_u32 conv_grayscale_diff;
alt_u32 sobel_threshold_start;
alt_u32 sobel_threshold_end;
alt_u32 sobel_threshold_diff;
int main()
{
     fbc:	defff804 	addi	sp,sp,-32
     fc0:	dfc00715 	stw	ra,28(sp)
     fc4:	dd800615 	stw	r22,24(sp)
     fc8:	dd400515 	stw	r21,20(sp)
     fcc:	dd000415 	stw	r20,16(sp)
     fd0:	dcc00315 	stw	r19,12(sp)
     fd4:	dc800215 	stw	r18,8(sp)
     fd8:	dc400115 	stw	r17,4(sp)
     fdc:	dc000015 	stw	r16,0(sp)
  void *buffer1,*buffer2,*buffer3,*buffer4;
  unsigned short *image;
  unsigned char *grayscale;
  unsigned char current_mode;
  unsigned char mode;
  init_LCD();
     fe0:	0000aa40 	call	aa4 <init_LCD>
  init_camera();
     fe4:	00002800 	call	280 <init_camera>
  alt_timestamp_start();
     fe8:	000fccc0 	call	fccc <alt_timestamp_start>
  vga_set_swap(VGA_QuarterScreen|VGA_Grayscale);
     fec:	01000604 	movi	r4,24
     ff0:	0001dbc0 	call	1dbc <vga_set_swap>
  printf("Hello from Nios II!\n");
     ff4:	01000074 	movhi	r4,1
     ff8:	21055f04 	addi	r4,r4,5500
     ffc:	00028e00 	call	28e0 <puts>
  cam_get_profiling();
    1000:	00005e00 	call	5e0 <cam_get_profiling>
  buffer1 = (void *) malloc(cam_get_xsize()*cam_get_ysize());
    1004:	00005980 	call	598 <cam_get_xsize>
    1008:	1023883a 	mov	r17,r2
    100c:	00005bc0 	call	5bc <cam_get_ysize>
    1010:	10bfffcc 	andi	r2,r2,65535
    1014:	893fffcc 	andi	r4,r17,65535
    1018:	2089383a 	mul	r4,r4,r2
	  if (new_image_available() != 0) {
		  if (current_image_valid()!=0) {
			  current_mode = DIPSW_get_value();
			  mode = current_mode&(DIPSW_SW1_MASK|DIPSW_SW3_MASK|DIPSW_SW2_MASK);
			  image = (unsigned short*)current_image_pointer();
		      switch (mode) {
    101c:	04000044 	movi	r16,1
    1020:	04400084 	movi	r17,2
  init_camera();
  alt_timestamp_start();
  vga_set_swap(VGA_QuarterScreen|VGA_Grayscale);
  printf("Hello from Nios II!\n");
  cam_get_profiling();
  buffer1 = (void *) malloc(cam_get_xsize()*cam_get_ysize());
    1024:	0001f800 	call	1f80 <malloc>
    1028:	102d883a 	mov	r22,r2
  buffer2 = (void *) malloc(cam_get_xsize()*cam_get_ysize());
    102c:	00005980 	call	598 <cam_get_xsize>
    1030:	1027883a 	mov	r19,r2
    1034:	00005bc0 	call	5bc <cam_get_ysize>
    1038:	10bfffcc 	andi	r2,r2,65535
    103c:	993fffcc 	andi	r4,r19,65535
    1040:	2089383a 	mul	r4,r4,r2
		  if (current_image_valid()!=0) {
			  current_mode = DIPSW_get_value();
			  mode = current_mode&(DIPSW_SW1_MASK|DIPSW_SW3_MASK|DIPSW_SW2_MASK);
			  image = (unsigned short*)current_image_pointer();
		      switch (mode) {
		      case 0 : transfer_LCD_with_dma(&image[16520],
    1044:	04a04414 	movui	r18,33040
  alt_timestamp_start();
  vga_set_swap(VGA_QuarterScreen|VGA_Grayscale);
  printf("Hello from Nios II!\n");
  cam_get_profiling();
  buffer1 = (void *) malloc(cam_get_xsize()*cam_get_ysize());
  buffer2 = (void *) malloc(cam_get_xsize()*cam_get_ysize());
    1048:	0001f800 	call	1f80 <malloc>
    104c:	102b883a 	mov	r21,r2
  buffer3 = (void *) malloc(cam_get_xsize()*cam_get_ysize());
    1050:	00005980 	call	598 <cam_get_xsize>
    1054:	1027883a 	mov	r19,r2
    1058:	00005bc0 	call	5bc <cam_get_ysize>
    105c:	10bfffcc 	andi	r2,r2,65535
    1060:	993fffcc 	andi	r4,r19,65535
    1064:	2089383a 	mul	r4,r4,r2
    1068:	0001f800 	call	1f80 <malloc>
    106c:	1029883a 	mov	r20,r2
  buffer4 = (void *) malloc(cam_get_xsize()*cam_get_ysize());
    1070:	00005980 	call	598 <cam_get_xsize>
    1074:	1027883a 	mov	r19,r2
    1078:	00005bc0 	call	5bc <cam_get_ysize>
    107c:	10bfffcc 	andi	r2,r2,65535
    1080:	993fffcc 	andi	r4,r19,65535
    1084:	2089383a 	mul	r4,r4,r2
    1088:	0001f800 	call	1f80 <malloc>
  cam_set_image_pointer(0,buffer1);
    108c:	b00b883a 	mov	r5,r22
    1090:	0009883a 	mov	r4,zero
  printf("Hello from Nios II!\n");
  cam_get_profiling();
  buffer1 = (void *) malloc(cam_get_xsize()*cam_get_ysize());
  buffer2 = (void *) malloc(cam_get_xsize()*cam_get_ysize());
  buffer3 = (void *) malloc(cam_get_xsize()*cam_get_ysize());
  buffer4 = (void *) malloc(cam_get_xsize()*cam_get_ysize());
    1094:	1027883a 	mov	r19,r2
  cam_set_image_pointer(0,buffer1);
    1098:	00006580 	call	658 <cam_set_image_pointer>
  cam_set_image_pointer(1,buffer2);
    109c:	a80b883a 	mov	r5,r21
    10a0:	8009883a 	mov	r4,r16
    10a4:	00006580 	call	658 <cam_set_image_pointer>
  cam_set_image_pointer(2,buffer3);
    10a8:	a00b883a 	mov	r5,r20
    10ac:	8809883a 	mov	r4,r17
    10b0:	00006580 	call	658 <cam_set_image_pointer>
  cam_set_image_pointer(3,buffer4);
    10b4:	980b883a 	mov	r5,r19
    10b8:	010000c4 	movi	r4,3
    10bc:	00006580 	call	658 <cam_set_image_pointer>
  enable_continues_mode();
    10c0:	00007100 	call	710 <enable_continues_mode>
  init_sobel_arrays(cam_get_xsize()>>1,cam_get_ysize());
    10c4:	00005980 	call	598 <cam_get_xsize>
    10c8:	1027883a 	mov	r19,r2
    10cc:	00005bc0 	call	5bc <cam_get_ysize>
    10d0:	993fffcc 	andi	r4,r19,65535
    10d4:	2408d83a 	srl	r4,r4,r16
    10d8:	117fffcc 	andi	r5,r2,65535
    10dc:	00015980 	call	1598 <init_sobel_arrays>
    10e0:	00001b06 	br	1150 <main+0x194>
		      	  	   }
		      	  	   break;
		      }
		  }
	  }
	  printf("hallo");
    10e4:	01000074 	movhi	r4,1
    10e8:	21056404 	addi	r4,r4,5520
    10ec:	00027e40 	call	27e4 <printf>
	  conv_grayscale_diff = conv_grayscale_end - conv_grayscale_start;
    10f0:	d0e71517 	ldw	r3,-25516(gp)
    10f4:	d0a71917 	ldw	r2,-25500(gp)
	  printf("time convolution grayscale: %d \n",(int)conv_grayscale_diff);
    10f8:	01000074 	movhi	r4,1
    10fc:	21056604 	addi	r4,r4,5528
		      	  	   break;
		      }
		  }
	  }
	  printf("hallo");
	  conv_grayscale_diff = conv_grayscale_end - conv_grayscale_start;
    1100:	10c5c83a 	sub	r2,r2,r3
	  printf("time convolution grayscale: %d \n",(int)conv_grayscale_diff);
    1104:	100b883a 	mov	r5,r2
		      	  	   break;
		      }
		  }
	  }
	  printf("hallo");
	  conv_grayscale_diff = conv_grayscale_end - conv_grayscale_start;
    1108:	d0a71715 	stw	r2,-25508(gp)
	  printf("time convolution grayscale: %d \n",(int)conv_grayscale_diff);
    110c:	00027e40 	call	27e4 <printf>
	  //sobel_x_diff = sobel_x_end - sobel_x_start;
	  //printf("time sobel x: %d \n",(int)sobel_x_diff);
	  sobel_y_diff = sobel_y_end - sobel_y_start;
    1110:	d0e70f17 	ldw	r3,-25540(gp)
    1114:	d0a71217 	ldw	r2,-25528(gp)
	  printf("time sobel: %d \n",(int)sobel_y_diff);
    1118:	01000074 	movhi	r4,1
    111c:	21056f04 	addi	r4,r4,5564
	  printf("hallo");
	  conv_grayscale_diff = conv_grayscale_end - conv_grayscale_start;
	  printf("time convolution grayscale: %d \n",(int)conv_grayscale_diff);
	  //sobel_x_diff = sobel_x_end - sobel_x_start;
	  //printf("time sobel x: %d \n",(int)sobel_x_diff);
	  sobel_y_diff = sobel_y_end - sobel_y_start;
    1120:	10c5c83a 	sub	r2,r2,r3
	  printf("time sobel: %d \n",(int)sobel_y_diff);
    1124:	100b883a 	mov	r5,r2
	  printf("hallo");
	  conv_grayscale_diff = conv_grayscale_end - conv_grayscale_start;
	  printf("time convolution grayscale: %d \n",(int)conv_grayscale_diff);
	  //sobel_x_diff = sobel_x_end - sobel_x_start;
	  //printf("time sobel x: %d \n",(int)sobel_x_diff);
	  sobel_y_diff = sobel_y_end - sobel_y_start;
    1128:	d0a71615 	stw	r2,-25512(gp)
	  printf("time sobel: %d \n",(int)sobel_y_diff);
    112c:	00027e40 	call	27e4 <printf>
	  sobel_threshold_diff = sobel_threshold_end - sobel_threshold_start;
    1130:	d0e71317 	ldw	r3,-25524(gp)
    1134:	d0a71417 	ldw	r2,-25520(gp)
	  printf("time sobel threshold : %d \n",(int)sobel_threshold_diff);
    1138:	01000074 	movhi	r4,1
    113c:	21057404 	addi	r4,r4,5584
	  printf("time convolution grayscale: %d \n",(int)conv_grayscale_diff);
	  //sobel_x_diff = sobel_x_end - sobel_x_start;
	  //printf("time sobel x: %d \n",(int)sobel_x_diff);
	  sobel_y_diff = sobel_y_end - sobel_y_start;
	  printf("time sobel: %d \n",(int)sobel_y_diff);
	  sobel_threshold_diff = sobel_threshold_end - sobel_threshold_start;
    1140:	10c5c83a 	sub	r2,r2,r3
	  printf("time sobel threshold : %d \n",(int)sobel_threshold_diff);
    1144:	100b883a 	mov	r5,r2
	  printf("time convolution grayscale: %d \n",(int)conv_grayscale_diff);
	  //sobel_x_diff = sobel_x_end - sobel_x_start;
	  //printf("time sobel x: %d \n",(int)sobel_x_diff);
	  sobel_y_diff = sobel_y_end - sobel_y_start;
	  printf("time sobel: %d \n",(int)sobel_y_diff);
	  sobel_threshold_diff = sobel_threshold_end - sobel_threshold_start;
    1148:	d0a71815 	stw	r2,-25504(gp)
	  printf("time sobel threshold : %d \n",(int)sobel_threshold_diff);
    114c:	00027e40 	call	27e4 <printf>
  cam_set_image_pointer(2,buffer3);
  cam_set_image_pointer(3,buffer4);
  enable_continues_mode();
  init_sobel_arrays(cam_get_xsize()>>1,cam_get_ysize());
  do {
	  if (new_image_available() != 0) {
    1150:	00007240 	call	724 <new_image_available>
    1154:	10803fcc 	andi	r2,r2,255
    1158:	1080201c 	xori	r2,r2,128
    115c:	10bfe004 	addi	r2,r2,-128
    1160:	103fe026 	beq	r2,zero,10e4 <main+0x128>
		  if (current_image_valid()!=0) {
    1164:	00006cc0 	call	6cc <current_image_valid>
    1168:	10bfffcc 	andi	r2,r2,65535
    116c:	10a0001c 	xori	r2,r2,32768
    1170:	10a00004 	addi	r2,r2,-32768
    1174:	103fdb26 	beq	r2,zero,10e4 <main+0x128>
			  current_mode = DIPSW_get_value();
    1178:	00007500 	call	750 <DIPSW_get_value>
    117c:	1027883a 	mov	r19,r2
			  mode = current_mode&(DIPSW_SW1_MASK|DIPSW_SW3_MASK|DIPSW_SW2_MASK);
			  image = (unsigned short*)current_image_pointer();
    1180:	00006e00 	call	6e0 <current_image_pointer>
    1184:	1029883a 	mov	r20,r2
		      switch (mode) {
    1188:	988001cc 	andi	r2,r19,7
    118c:	14007226 	beq	r2,r16,1358 <main+0x39c>
    1190:	10005f26 	beq	r2,zero,1310 <main+0x354>
    1194:	14405226 	beq	r2,r17,12e0 <main+0x324>
    1198:	00c000c4 	movi	r3,3
    119c:	10c0221e 	bne	r2,r3,1228 <main+0x26c>
		      	  		  vga_set_swap(VGA_QuarterScreen);
		      	  		  vga_set_pointer(image);
		      	  	   }
		      	  	   break;
		      case 3 : conv_grayscale((void *)image,
		    		                  cam_get_xsize()>>1,
    11a0:	00005980 	call	598 <cam_get_xsize>
    11a4:	102b883a 	mov	r21,r2
		    		                  cam_get_ysize());
    11a8:	00005bc0 	call	5bc <cam_get_ysize>
		      	  	   if ((current_mode&DIPSW_SW8_MASK)!=0) {
		      	  		  vga_set_swap(VGA_QuarterScreen);
		      	  		  vga_set_pointer(image);
		      	  	   }
		      	  	   break;
		      case 3 : conv_grayscale((void *)image,
    11ac:	a97fffcc 	andi	r5,r21,65535
    11b0:	280ad07a 	srli	r5,r5,1
    11b4:	a009883a 	mov	r4,r20
    11b8:	11bfffcc 	andi	r6,r2,65535
    11bc:	00007640 	call	764 <conv_grayscale>
		    		                  cam_get_xsize()>>1,
		    		                  cam_get_ysize());
		               grayscale = get_grayscale_picture();
    11c0:	00008d00 	call	8d0 <get_grayscale_picture>
		               sobel_x(grayscale);
    11c4:	1009883a 	mov	r4,r2
		      	  	   }
		      	  	   break;
		      case 3 : conv_grayscale((void *)image,
		    		                  cam_get_xsize()>>1,
		    		                  cam_get_ysize());
		               grayscale = get_grayscale_picture();
    11c8:	1029883a 	mov	r20,r2
		               sobel_x(grayscale);
    11cc:	00017a40 	call	17a4 <sobel_x>
		               sobel_y_with_rgb(grayscale);
    11d0:	a009883a 	mov	r4,r20
    11d4:	0001b640 	call	1b64 <sobel_y_with_rgb>
		               image = GetSobel_rgb();
    11d8:	0001d9c0 	call	1d9c <GetSobel_rgb>
    11dc:	102b883a 	mov	r21,r2
		               transfer_LCD_with_dma(&image[16520],
		      		                	cam_get_xsize()>>1,
    11e0:	00005980 	call	598 <cam_get_xsize>
    11e4:	1029883a 	mov	r20,r2
		      		                	cam_get_ysize(),0);
    11e8:	00005bc0 	call	5bc <cam_get_ysize>
		    		                  cam_get_ysize());
		               grayscale = get_grayscale_picture();
		               sobel_x(grayscale);
		               sobel_y_with_rgb(grayscale);
		               image = GetSobel_rgb();
		               transfer_LCD_with_dma(&image[16520],
    11ec:	a17fffcc 	andi	r5,r20,65535
    11f0:	280ad07a 	srli	r5,r5,1
		      		                	cam_get_xsize()>>1,
		      		                	cam_get_ysize(),0);
		      	  	   if ((current_mode&DIPSW_SW8_MASK)!=0) {
    11f4:	9cc03fcc 	andi	r19,r19,255
    11f8:	9cc0201c 	xori	r19,r19,128
		    		                  cam_get_ysize());
		               grayscale = get_grayscale_picture();
		               sobel_x(grayscale);
		               sobel_y_with_rgb(grayscale);
		               image = GetSobel_rgb();
		               transfer_LCD_with_dma(&image[16520],
    11fc:	000f883a 	mov	r7,zero
    1200:	11bfffcc 	andi	r6,r2,65535
    1204:	ac89883a 	add	r4,r21,r18
		      		                	cam_get_xsize()>>1,
		      		                	cam_get_ysize(),0);
		      	  	   if ((current_mode&DIPSW_SW8_MASK)!=0) {
    1208:	9cffe004 	addi	r19,r19,-128
		    		                  cam_get_ysize());
		               grayscale = get_grayscale_picture();
		               sobel_x(grayscale);
		               sobel_y_with_rgb(grayscale);
		               image = GetSobel_rgb();
		               transfer_LCD_with_dma(&image[16520],
    120c:	0000f440 	call	f44 <transfer_LCD_with_dma>
		      		                	cam_get_xsize()>>1,
		      		                	cam_get_ysize(),0);
		      	  	   if ((current_mode&DIPSW_SW8_MASK)!=0) {
    1210:	983fb40e 	bge	r19,zero,10e4 <main+0x128>
		      	  		  vga_set_swap(VGA_QuarterScreen);
    1214:	01000204 	movi	r4,8
    1218:	0001dbc0 	call	1dbc <vga_set_swap>
		      	  		  vga_set_pointer(image);
    121c:	a809883a 	mov	r4,r21
    1220:	0001dac0 	call	1dac <vga_set_pointer>
    1224:	003faf06 	br	10e4 <main+0x128>
		      	  	   }
		      	  	   break;
		      default: conv_grayscale((void *)image,
	                                  cam_get_xsize()>>1,
    1228:	00005980 	call	598 <cam_get_xsize>
    122c:	102b883a 	mov	r21,r2
	                                  cam_get_ysize());
    1230:	00005bc0 	call	5bc <cam_get_ysize>
		      	  	   if ((current_mode&DIPSW_SW8_MASK)!=0) {
		      	  		  vga_set_swap(VGA_QuarterScreen);
		      	  		  vga_set_pointer(image);
		      	  	   }
		      	  	   break;
		      default: conv_grayscale((void *)image,
    1234:	a97fffcc 	andi	r5,r21,65535
    1238:	280ad07a 	srli	r5,r5,1
    123c:	11bfffcc 	andi	r6,r2,65535
    1240:	a009883a 	mov	r4,r20
    1244:	00007640 	call	764 <conv_grayscale>
	                                  cam_get_xsize()>>1,
	                                  cam_get_ysize());
		      	  	   conv_grayscale_start = alt_timestamp();
    1248:	000fd440 	call	fd44 <alt_timestamp>
    124c:	d0a71515 	stw	r2,-25516(gp)
                       grayscale = get_grayscale_picture();
    1250:	00008d00 	call	8d0 <get_grayscale_picture>
    1254:	1029883a 	mov	r20,r2
                       conv_grayscale_end = alt_timestamp();
    1258:	000fd440 	call	fd44 <alt_timestamp>
    125c:	d0a71915 	stw	r2,-25500(gp)
                       //sobel_x_start = alt_timestamp();
                       //sobel_x(grayscale);
                       //sobel_x_end = alt_timestamp();
                       sobel_y_start = alt_timestamp();
    1260:	000fd440 	call	fd44 <alt_timestamp>
                       sobel_complete(grayscale);
    1264:	a009883a 	mov	r4,r20
                       grayscale = get_grayscale_picture();
                       conv_grayscale_end = alt_timestamp();
                       //sobel_x_start = alt_timestamp();
                       //sobel_x(grayscale);
                       //sobel_x_end = alt_timestamp();
                       sobel_y_start = alt_timestamp();
    1268:	d0a70f15 	stw	r2,-25540(gp)
                       sobel_complete(grayscale);
    126c:	000139c0 	call	139c <sobel_complete>
                       //sobel_y(grayscale);
                       sobel_y_end = alt_timestamp();
    1270:	000fd440 	call	fd44 <alt_timestamp>
    1274:	d0a71215 	stw	r2,-25528(gp)
                       sobel_threshold_start = alt_timestamp();
    1278:	000fd440 	call	fd44 <alt_timestamp>
                       sobel_threshold(128);
    127c:	01002004 	movi	r4,128
                       //sobel_x_end = alt_timestamp();
                       sobel_y_start = alt_timestamp();
                       sobel_complete(grayscale);
                       //sobel_y(grayscale);
                       sobel_y_end = alt_timestamp();
                       sobel_threshold_start = alt_timestamp();
    1280:	d0a71315 	stw	r2,-25524(gp)
                       sobel_threshold(128);
    1284:	0001ce80 	call	1ce8 <sobel_threshold>
                       sobel_threshold_end = alt_timestamp();
    1288:	000fd440 	call	fd44 <alt_timestamp>
    128c:	d0a71415 	stw	r2,-25520(gp)
                       grayscale=GetSobelResult();
    1290:	0001da40 	call	1da4 <GetSobelResult>
    1294:	102b883a 	mov	r21,r2
		               transfer_LCD_with_dma(&grayscale[16520],
		      		                	cam_get_xsize()>>1,
    1298:	00005980 	call	598 <cam_get_xsize>
    129c:	1029883a 	mov	r20,r2
		      		                	cam_get_ysize(),1);
    12a0:	00005bc0 	call	5bc <cam_get_ysize>
                       sobel_y_end = alt_timestamp();
                       sobel_threshold_start = alt_timestamp();
                       sobel_threshold(128);
                       sobel_threshold_end = alt_timestamp();
                       grayscale=GetSobelResult();
		               transfer_LCD_with_dma(&grayscale[16520],
    12a4:	a17fffcc 	andi	r5,r20,65535
    12a8:	280ad07a 	srli	r5,r5,1
    12ac:	01c00044 	movi	r7,1
		      		                	cam_get_xsize()>>1,
		      		                	cam_get_ysize(),1);
		      	  	   if ((current_mode&DIPSW_SW8_MASK)!=0) {
    12b0:	9cc03fcc 	andi	r19,r19,255
    12b4:	9cc0201c 	xori	r19,r19,128
                       sobel_y_end = alt_timestamp();
                       sobel_threshold_start = alt_timestamp();
                       sobel_threshold(128);
                       sobel_threshold_end = alt_timestamp();
                       grayscale=GetSobelResult();
		               transfer_LCD_with_dma(&grayscale[16520],
    12b8:	11bfffcc 	andi	r6,r2,65535
    12bc:	a9102204 	addi	r4,r21,16520
		      		                	cam_get_xsize()>>1,
		      		                	cam_get_ysize(),1);
		      	  	   if ((current_mode&DIPSW_SW8_MASK)!=0) {
    12c0:	9cffe004 	addi	r19,r19,-128
                       sobel_y_end = alt_timestamp();
                       sobel_threshold_start = alt_timestamp();
                       sobel_threshold(128);
                       sobel_threshold_end = alt_timestamp();
                       grayscale=GetSobelResult();
		               transfer_LCD_with_dma(&grayscale[16520],
    12c4:	0000f440 	call	f44 <transfer_LCD_with_dma>
		      		                	cam_get_xsize()>>1,
		      		                	cam_get_ysize(),1);
		      	  	   if ((current_mode&DIPSW_SW8_MASK)!=0) {
    12c8:	983f860e 	bge	r19,zero,10e4 <main+0x128>
		      	  		  vga_set_swap(VGA_QuarterScreen|VGA_Grayscale);
    12cc:	01000604 	movi	r4,24
    12d0:	0001dbc0 	call	1dbc <vga_set_swap>
		      	  		  vga_set_pointer(grayscale);
    12d4:	a809883a 	mov	r4,r21
    12d8:	0001dac0 	call	1dac <vga_set_pointer>
    12dc:	003f8106 	br	10e4 <main+0x128>
		      	  		  vga_set_swap(VGA_QuarterScreen|VGA_Grayscale);
		      	  		  vga_set_pointer(grayscale);
		      	  	   }
		      	  	   break;
		      case 2 : conv_grayscale((void *)image,
		    		                  cam_get_xsize()>>1,
    12e0:	00005980 	call	598 <cam_get_xsize>
    12e4:	102b883a 	mov	r21,r2
		    		                  cam_get_ysize());
    12e8:	00005bc0 	call	5bc <cam_get_ysize>
		      	  	   if ((current_mode&DIPSW_SW8_MASK)!=0) {
		      	  		  vga_set_swap(VGA_QuarterScreen|VGA_Grayscale);
		      	  		  vga_set_pointer(grayscale);
		      	  	   }
		      	  	   break;
		      case 2 : conv_grayscale((void *)image,
    12ec:	a97fffcc 	andi	r5,r21,65535
    12f0:	280ad07a 	srli	r5,r5,1
    12f4:	a009883a 	mov	r4,r20
    12f8:	11bfffcc 	andi	r6,r2,65535
    12fc:	00007640 	call	764 <conv_grayscale>
		    		                  cam_get_xsize()>>1,
		    		                  cam_get_ysize());
		               grayscale = get_grayscale_picture();
    1300:	00008d00 	call	8d0 <get_grayscale_picture>
		               sobel_x_with_rgb(grayscale);
    1304:	1009883a 	mov	r4,r2
    1308:	00018e40 	call	18e4 <sobel_x_with_rgb>
    130c:	003fb206 	br	11d8 <main+0x21c>
			  current_mode = DIPSW_get_value();
			  mode = current_mode&(DIPSW_SW1_MASK|DIPSW_SW3_MASK|DIPSW_SW2_MASK);
			  image = (unsigned short*)current_image_pointer();
		      switch (mode) {
		      case 0 : transfer_LCD_with_dma(&image[16520],
		                	cam_get_xsize()>>1,
    1310:	00005980 	call	598 <cam_get_xsize>
    1314:	102b883a 	mov	r21,r2
		                	cam_get_ysize(),0);
    1318:	00005bc0 	call	5bc <cam_get_ysize>
		  if (current_image_valid()!=0) {
			  current_mode = DIPSW_get_value();
			  mode = current_mode&(DIPSW_SW1_MASK|DIPSW_SW3_MASK|DIPSW_SW2_MASK);
			  image = (unsigned short*)current_image_pointer();
		      switch (mode) {
		      case 0 : transfer_LCD_with_dma(&image[16520],
    131c:	a97fffcc 	andi	r5,r21,65535
    1320:	280ad07a 	srli	r5,r5,1
		                	cam_get_xsize()>>1,
		                	cam_get_ysize(),0);
		      	  	   if ((current_mode&DIPSW_SW8_MASK)!=0) {
    1324:	9cc03fcc 	andi	r19,r19,255
    1328:	9cc0201c 	xori	r19,r19,128
		  if (current_image_valid()!=0) {
			  current_mode = DIPSW_get_value();
			  mode = current_mode&(DIPSW_SW1_MASK|DIPSW_SW3_MASK|DIPSW_SW2_MASK);
			  image = (unsigned short*)current_image_pointer();
		      switch (mode) {
		      case 0 : transfer_LCD_with_dma(&image[16520],
    132c:	000f883a 	mov	r7,zero
    1330:	11bfffcc 	andi	r6,r2,65535
    1334:	a489883a 	add	r4,r20,r18
		                	cam_get_xsize()>>1,
		                	cam_get_ysize(),0);
		      	  	   if ((current_mode&DIPSW_SW8_MASK)!=0) {
    1338:	9cffe004 	addi	r19,r19,-128
		  if (current_image_valid()!=0) {
			  current_mode = DIPSW_get_value();
			  mode = current_mode&(DIPSW_SW1_MASK|DIPSW_SW3_MASK|DIPSW_SW2_MASK);
			  image = (unsigned short*)current_image_pointer();
		      switch (mode) {
		      case 0 : transfer_LCD_with_dma(&image[16520],
    133c:	0000f440 	call	f44 <transfer_LCD_with_dma>
		                	cam_get_xsize()>>1,
		                	cam_get_ysize(),0);
		      	  	   if ((current_mode&DIPSW_SW8_MASK)!=0) {
    1340:	983f680e 	bge	r19,zero,10e4 <main+0x128>
		      	  		  vga_set_swap(VGA_QuarterScreen);
    1344:	01000204 	movi	r4,8
    1348:	0001dbc0 	call	1dbc <vga_set_swap>
		      	  		  vga_set_pointer(image);
    134c:	a009883a 	mov	r4,r20
    1350:	0001dac0 	call	1dac <vga_set_pointer>
    1354:	003f6306 	br	10e4 <main+0x128>
		      	  	   }
		      	  	   break;
		      case 1 : conv_grayscale((void *)image,
		    		                  cam_get_xsize()>>1,
    1358:	00005980 	call	598 <cam_get_xsize>
    135c:	102b883a 	mov	r21,r2
		    		                  cam_get_ysize());
    1360:	00005bc0 	call	5bc <cam_get_ysize>
		      	  	   if ((current_mode&DIPSW_SW8_MASK)!=0) {
		      	  		  vga_set_swap(VGA_QuarterScreen);
		      	  		  vga_set_pointer(image);
		      	  	   }
		      	  	   break;
		      case 1 : conv_grayscale((void *)image,
    1364:	a97fffcc 	andi	r5,r21,65535
    1368:	280ad07a 	srli	r5,r5,1
    136c:	a009883a 	mov	r4,r20
    1370:	11bfffcc 	andi	r6,r2,65535
    1374:	00007640 	call	764 <conv_grayscale>
		    		                  cam_get_xsize()>>1,
		    		                  cam_get_ysize());
		               grayscale = get_grayscale_picture();
    1378:	00008d00 	call	8d0 <get_grayscale_picture>
    137c:	102b883a 	mov	r21,r2
		               transfer_LCD_with_dma(&grayscale[16520],
		      		                	cam_get_xsize()>>1,
    1380:	00005980 	call	598 <cam_get_xsize>
    1384:	1029883a 	mov	r20,r2
		      		                	cam_get_ysize(),1);
    1388:	00005bc0 	call	5bc <cam_get_ysize>
		      	  	   break;
		      case 1 : conv_grayscale((void *)image,
		    		                  cam_get_xsize()>>1,
		    		                  cam_get_ysize());
		               grayscale = get_grayscale_picture();
		               transfer_LCD_with_dma(&grayscale[16520],
    138c:	a17fffcc 	andi	r5,r20,65535
    1390:	280ad07a 	srli	r5,r5,1
    1394:	800f883a 	mov	r7,r16
    1398:	003fc506 	br	12b0 <main+0x2f4>

0000139c <sobel_complete>:
unsigned short *sobel_rgb565;
unsigned char *sobel_result;
int sobel_width;
int sobel_height;
void sobel_complete( unsigned char * source )
{
    139c:	defff404 	addi	sp,sp,-48
    13a0:	dcc00515 	stw	r19,20(sp)
	int x,y;
	short result = 0;
	   for (y = 1 ; y < (sobel_height-1) ; y++) { // TODO calcule des indices une fois additionner sur la ligne
    13a4:	d4e71d17 	ldw	r19,-25484(gp)
unsigned short *sobel_rgb565;
unsigned char *sobel_result;
int sobel_width;
int sobel_height;
void sobel_complete( unsigned char * source )
{
    13a8:	dd800815 	stw	r22,32(sp)
    13ac:	dfc00b15 	stw	ra,44(sp)
    13b0:	df000a15 	stw	fp,40(sp)
    13b4:	ddc00915 	stw	r23,36(sp)
    13b8:	dd400715 	stw	r21,28(sp)
    13bc:	dd000615 	stw	r20,24(sp)
    13c0:	dc800415 	stw	r18,16(sp)
    13c4:	dc400315 	stw	r17,12(sp)
    13c8:	dc000215 	stw	r16,8(sp)
	int x,y;
	short result = 0;
	   for (y = 1 ; y < (sobel_height-1) ; y++) { // TODO calcule des indices une fois additionner sur la ligne
    13cc:	05800044 	movi	r22,1
unsigned short *sobel_rgb565;
unsigned char *sobel_result;
int sobel_width;
int sobel_height;
void sobel_complete( unsigned char * source )
{
    13d0:	d9000015 	stw	r4,0(sp)
	int x,y;
	short result = 0;
	   for (y = 1 ; y < (sobel_height-1) ; y++) { // TODO calcule des indices une fois additionner sur la ligne
    13d4:	9cffffc4 	addi	r19,r19,-1
    13d8:	b4c05c0e 	bge	r22,r19,154c <sobel_complete+0x1b0>
    13dc:	d3e71b17 	ldw	r15,-25492(gp)
    13e0:	d4671e17 	ldw	r17,-25480(gp)
    13e4:	04000084 	movi	r16,2
    13e8:	7bff883a 	add	ra,r15,r15
    13ec:	fc2f883a 	add	r23,ra,r16
    13f0:	7c05883a 	add	r2,r15,r16
    13f4:	8de3883a 	add	r17,r17,r23
    13f8:	ddc00115 	stw	r23,4(sp)
    13fc:	7d3fffc4 	addi	r20,r15,-1
    1400:	23dd883a 	add	r14,r4,r15
    1404:	83f9c83a 	sub	fp,r16,r15
    1408:	102f883a 	mov	r23,r2
	      for (x = 1 ; x < (sobel_width-1) ; x++) {
    140c:	b5005b0e 	bge	r22,r20,157c <sobel_complete+0x1e0>
    1410:	73e5883a 	add	r18,r14,r15
    1414:	802b883a 	mov	r21,r16
    1418:	73dbc83a 	sub	r13,r14,r15
    141c:	e38f883a 	add	r7,fp,r14
    1420:	73000084 	addi	r12,r14,2
    1424:	9017883a 	mov	r11,r18
    1428:	bb95883a 	add	r10,r23,r14
    142c:	8813883a 	mov	r9,r17
    1430:	7011883a 	mov	r8,r14
				result += gx_array[1][1]*source[(y-1)*sobel_width+(x)];
				result += gx_array[1][2]*source[(y)*sobel_width+(x+1)];
				result += gx_array[2][0]*source[(y+1)*sobel_width+(x-1)];
				result += gx_array[2][1]*source[(y-1)*sobel_width+(x)];
				result += gx_array[2][2]*source[(y+1)*sobel_width+(x+1)];
				sobel_x_result[y*sobel_width+x] = result;
    1434:	39000003 	ldbu	r4,0(r7)
    1438:	50c00003 	ldbu	r3,0(r10)
    143c:	41800003 	ldbu	r6,0(r8)
    1440:	60800003 	ldbu	r2,0(r12)
    1444:	20c7883a 	add	r3,r4,r3
    1448:	69400003 	ldbu	r5,0(r13)
    144c:	1987c83a 	sub	r3,r3,r6
    1450:	59000003 	ldbu	r4,0(r11)
    1454:	198dc83a 	sub	r6,r3,r6
    1458:	1087883a 	add	r3,r2,r2
    145c:	30c7883a 	add	r3,r6,r3
    1460:	1945c83a 	sub	r2,r3,r5
    1464:	1105c83a 	sub	r2,r2,r4
    1468:	4880000d 	sth	r2,0(r9)
    146c:	39c00044 	addi	r7,r7,1
    1470:	6b400044 	addi	r13,r13,1
    1474:	42000044 	addi	r8,r8,1
    1478:	63000044 	addi	r12,r12,1
    147c:	5ac00044 	addi	r11,r11,1
    1480:	52800044 	addi	r10,r10,1
    1484:	4a400084 	addi	r9,r9,2
void sobel_complete( unsigned char * source )
{
	int x,y;
	short result = 0;
	   for (y = 1 ; y < (sobel_height-1) ; y++) { // TODO calcule des indices une fois additionner sur la ligne
	      for (x = 1 ; x < (sobel_width-1) ; x++) {
    1488:	71ffea1e 	bne	r14,r7,1434 <sobel_complete+0x98>
    148c:	84000044 	addi	r16,r16,1
    1490:	901d883a 	mov	r14,r18
    1494:	8fe3883a 	add	r17,r17,ra
int sobel_height;
void sobel_complete( unsigned char * source )
{
	int x,y;
	short result = 0;
	   for (y = 1 ; y < (sobel_height-1) ; y++) { // TODO calcule des indices une fois additionner sur la ligne
    1498:	acffdc16 	blt	r21,r19,140c <sobel_complete+0x70>
    149c:	ddc00117 	ldw	r23,4(sp)
    14a0:	d3a71f17 	ldw	r14,-25476(gp)
    14a4:	d9000017 	ldw	r4,0(sp)
				result = 0;
	      }
	   }

	   for (y = 1 ; y < (sobel_height-1) ; y++) {
	         for (x = 1 ; x < (sobel_width-1) ; x++) {
    14a8:	04800044 	movi	r18,1
int sobel_height;
void sobel_complete( unsigned char * source )
{
	int x,y;
	short result = 0;
	   for (y = 1 ; y < (sobel_height-1) ; y++) { // TODO calcule des indices une fois additionner sur la ligne
    14ac:	04000084 	movi	r16,2
    14b0:	75dd883a 	add	r14,r14,r23
    14b4:	fcab883a 	add	r21,ra,r18
    14b8:	801b883a 	mov	r13,r16
				result = 0;
	      }
	   }

	   for (y = 1 ; y < (sobel_height-1) ; y++) {
	         for (x = 1 ; x < (sobel_width-1) ; x++) {
    14bc:	95001f0e 	bge	r18,r20,153c <sobel_complete+0x1a0>
    14c0:	f90d883a 	add	r6,ra,r4
    14c4:	801b883a 	mov	r13,r16
    14c8:	22c00044 	addi	r11,r4,1
    14cc:	21400084 	addi	r5,r4,2
    14d0:	a915883a 	add	r10,r21,r4
    14d4:	b913883a 	add	r9,r23,r4
    14d8:	33d9c83a 	sub	r12,r6,r15
    14dc:	7011883a 	mov	r8,r14
    14e0:	200f883a 	mov	r7,r4
	       	    result += gy_array[0][1]*source[(y-1)*sobel_width+(x)];
	       	    result += gy_array[0][2]*source[(y-1)*sobel_width+(x+1)];
	       	    result += gy_array[2][0]*source[(y+1)*sobel_width+(x-1)];
	   			result += gy_array[2][1]*source[(y+1)*sobel_width+(x)];
	   			result += gy_array[2][2]*source[(y+1)*sobel_width+(x+1)];
	   			sobel_y_result[y*sobel_width+x] = result ;// sobel_mac(source,x,y,gy_array,sobel_width);
    14e4:	3d800003 	ldbu	r22,0(r7)
    14e8:	28c00003 	ldbu	r3,0(r5)
    14ec:	58800003 	ldbu	r2,0(r11)
    14f0:	54400003 	ldbu	r17,0(r10)
    14f4:	b0c7883a 	add	r3,r22,r3
    14f8:	1085883a 	add	r2,r2,r2
    14fc:	37000003 	ldbu	fp,0(r6)
    1500:	1887883a 	add	r3,r3,r2
    1504:	4d800003 	ldbu	r22,0(r9)
    1508:	1c47c83a 	sub	r3,r3,r17
    150c:	1c47c83a 	sub	r3,r3,r17
    1510:	1f05c83a 	sub	r2,r3,fp
    1514:	1585c83a 	sub	r2,r2,r22
    1518:	4080000d 	sth	r2,0(r8)
    151c:	29400044 	addi	r5,r5,1
    1520:	39c00044 	addi	r7,r7,1
    1524:	5ac00044 	addi	r11,r11,1
    1528:	31800044 	addi	r6,r6,1
    152c:	52800044 	addi	r10,r10,1
    1530:	4a400044 	addi	r9,r9,1
    1534:	42000084 	addi	r8,r8,2
				result = 0;
	      }
	   }

	   for (y = 1 ; y < (sobel_height-1) ; y++) {
	         for (x = 1 ; x < (sobel_width-1) ; x++) {
    1538:	617fea1e 	bne	r12,r5,14e4 <sobel_complete+0x148>
    153c:	84000044 	addi	r16,r16,1
    1540:	23c9883a 	add	r4,r4,r15
    1544:	77dd883a 	add	r14,r14,ra
				sobel_x_result[y*sobel_width+x] = result;
				result = 0;
	      }
	   }

	   for (y = 1 ; y < (sobel_height-1) ; y++) {
    1548:	6cffdb16 	blt	r13,r19,14b8 <sobel_complete+0x11c>
	   			result += gy_array[2][2]*source[(y+1)*sobel_width+(x+1)];
	   			sobel_y_result[y*sobel_width+x] = result ;// sobel_mac(source,x,y,gy_array,sobel_width);
	   			result = 0;
		 }
	  }
}
    154c:	dfc00b17 	ldw	ra,44(sp)
    1550:	df000a17 	ldw	fp,40(sp)
    1554:	ddc00917 	ldw	r23,36(sp)
    1558:	dd800817 	ldw	r22,32(sp)
    155c:	dd400717 	ldw	r21,28(sp)
    1560:	dd000617 	ldw	r20,24(sp)
    1564:	dcc00517 	ldw	r19,20(sp)
    1568:	dc800417 	ldw	r18,16(sp)
    156c:	dc400317 	ldw	r17,12(sp)
    1570:	dc000217 	ldw	r16,8(sp)
    1574:	dec00c04 	addi	sp,sp,48
    1578:	f800283a 	ret
    157c:	802b883a 	mov	r21,r16
    1580:	73e5883a 	add	r18,r14,r15
    1584:	84000044 	addi	r16,r16,1
    1588:	901d883a 	mov	r14,r18
    158c:	8fe3883a 	add	r17,r17,ra
int sobel_height;
void sobel_complete( unsigned char * source )
{
	int x,y;
	short result = 0;
	   for (y = 1 ; y < (sobel_height-1) ; y++) { // TODO calcule des indices une fois additionner sur la ligne
    1590:	acff9e16 	blt	r21,r19,140c <sobel_complete+0x70>
    1594:	003fc106 	br	149c <sobel_complete+0x100>

00001598 <init_sobel_arrays>:
}
void init_sobel_arrays(int width , int height) {
	int loop;
	sobel_width = width;
	sobel_height = height;
	if (sobel_x_result != NULL)
    1598:	d0a71e17 	ldw	r2,-25480(gp)
	   			sobel_y_result[y*sobel_width+x] = result ;// sobel_mac(source,x,y,gy_array,sobel_width);
	   			result = 0;
		 }
	  }
}
void init_sobel_arrays(int width , int height) {
    159c:	defffd04 	addi	sp,sp,-12
    15a0:	dc400115 	stw	r17,4(sp)
    15a4:	dc000015 	stw	r16,0(sp)
    15a8:	dfc00215 	stw	ra,8(sp)
	int loop;
	sobel_width = width;
    15ac:	d1271b15 	stw	r4,-25492(gp)
	sobel_height = height;
    15b0:	d1671d15 	stw	r5,-25484(gp)
	   			sobel_y_result[y*sobel_width+x] = result ;// sobel_mac(source,x,y,gy_array,sobel_width);
	   			result = 0;
		 }
	  }
}
void init_sobel_arrays(int width , int height) {
    15b4:	2023883a 	mov	r17,r4
    15b8:	2821883a 	mov	r16,r5
	int loop;
	sobel_width = width;
	sobel_height = height;
	if (sobel_x_result != NULL)
    15bc:	10000226 	beq	r2,zero,15c8 <init_sobel_arrays+0x30>
		free(sobel_x_result);
    15c0:	1009883a 	mov	r4,r2
    15c4:	0001f940 	call	1f94 <free>
	sobel_x_result = (short *)malloc(width*height*sizeof(short));
    15c8:	8c21383a 	mul	r16,r17,r16
    15cc:	8423883a 	add	r17,r16,r16
    15d0:	8809883a 	mov	r4,r17
    15d4:	0001f800 	call	1f80 <malloc>
	if (sobel_y_result != NULL)
    15d8:	d1271f17 	ldw	r4,-25476(gp)
	int loop;
	sobel_width = width;
	sobel_height = height;
	if (sobel_x_result != NULL)
		free(sobel_x_result);
	sobel_x_result = (short *)malloc(width*height*sizeof(short));
    15dc:	d0a71e15 	stw	r2,-25480(gp)
	if (sobel_y_result != NULL)
    15e0:	20000126 	beq	r4,zero,15e8 <init_sobel_arrays+0x50>
		free(sobel_y_result);
    15e4:	0001f940 	call	1f94 <free>
	sobel_y_result = (short *)malloc(width*height*sizeof(short));
    15e8:	8809883a 	mov	r4,r17
    15ec:	0001f800 	call	1f80 <malloc>
	if (sobel_result != NULL)
    15f0:	d1271c17 	ldw	r4,-25488(gp)
	if (sobel_x_result != NULL)
		free(sobel_x_result);
	sobel_x_result = (short *)malloc(width*height*sizeof(short));
	if (sobel_y_result != NULL)
		free(sobel_y_result);
	sobel_y_result = (short *)malloc(width*height*sizeof(short));
    15f4:	d0a71f15 	stw	r2,-25476(gp)
	if (sobel_result != NULL)
    15f8:	20000126 	beq	r4,zero,1600 <init_sobel_arrays+0x68>
		free(sobel_result);
    15fc:	0001f940 	call	1f94 <free>
	sobel_result = (unsigned char *)malloc(width*height*sizeof(unsigned char));
    1600:	8009883a 	mov	r4,r16
    1604:	0001f800 	call	1f80 <malloc>
	if (sobel_rgb565 != NULL)
    1608:	d1272017 	ldw	r4,-25472(gp)
	if (sobel_y_result != NULL)
		free(sobel_y_result);
	sobel_y_result = (short *)malloc(width*height*sizeof(short));
	if (sobel_result != NULL)
		free(sobel_result);
	sobel_result = (unsigned char *)malloc(width*height*sizeof(unsigned char));
    160c:	d0a71c15 	stw	r2,-25488(gp)
	if (sobel_rgb565 != NULL)
    1610:	20000126 	beq	r4,zero,1618 <init_sobel_arrays+0x80>
		free(sobel_rgb565);
    1614:	0001f940 	call	1f94 <free>
	sobel_rgb565 = (unsigned short *)malloc(width*height*sizeof(unsigned short));
    1618:	8809883a 	mov	r4,r17
    161c:	0001f800 	call	1f80 <malloc>
    1620:	d0a72015 	stw	r2,-25472(gp)
	for (loop = 0 ; loop < width*height ; loop++) {
    1624:	0005883a 	mov	r2,zero
    1628:	04000f0e 	bge	zero,r16,1668 <init_sobel_arrays+0xd0>
		sobel_x_result[loop] = 0;
    162c:	d2271e17 	ldw	r8,-25480(gp)
		sobel_y_result[loop] = 0;
    1630:	d1e71f17 	ldw	r7,-25476(gp)
		sobel_result[loop] = 0;
    1634:	d1a71c17 	ldw	r6,-25488(gp)
    1638:	1087883a 	add	r3,r2,r2
	sobel_result = (unsigned char *)malloc(width*height*sizeof(unsigned char));
	if (sobel_rgb565 != NULL)
		free(sobel_rgb565);
	sobel_rgb565 = (unsigned short *)malloc(width*height*sizeof(unsigned short));
	for (loop = 0 ; loop < width*height ; loop++) {
		sobel_x_result[loop] = 0;
    163c:	40d1883a 	add	r8,r8,r3
    1640:	4000000d 	sth	zero,0(r8)
		sobel_y_result[loop] = 0;
    1644:	38cf883a 	add	r7,r7,r3
		sobel_result[loop] = 0;
    1648:	308d883a 	add	r6,r6,r2
	if (sobel_rgb565 != NULL)
		free(sobel_rgb565);
	sobel_rgb565 = (unsigned short *)malloc(width*height*sizeof(unsigned short));
	for (loop = 0 ; loop < width*height ; loop++) {
		sobel_x_result[loop] = 0;
		sobel_y_result[loop] = 0;
    164c:	3800000d 	sth	zero,0(r7)
		sobel_result[loop] = 0;
    1650:	30000005 	stb	zero,0(r6)
		sobel_rgb565[loop] = 0;
    1654:	d1a72017 	ldw	r6,-25472(gp)
		free(sobel_result);
	sobel_result = (unsigned char *)malloc(width*height*sizeof(unsigned char));
	if (sobel_rgb565 != NULL)
		free(sobel_rgb565);
	sobel_rgb565 = (unsigned short *)malloc(width*height*sizeof(unsigned short));
	for (loop = 0 ; loop < width*height ; loop++) {
    1658:	10800044 	addi	r2,r2,1
		sobel_x_result[loop] = 0;
		sobel_y_result[loop] = 0;
		sobel_result[loop] = 0;
		sobel_rgb565[loop] = 0;
    165c:	30c7883a 	add	r3,r6,r3
    1660:	1800000d 	sth	zero,0(r3)
		free(sobel_result);
	sobel_result = (unsigned char *)malloc(width*height*sizeof(unsigned char));
	if (sobel_rgb565 != NULL)
		free(sobel_rgb565);
	sobel_rgb565 = (unsigned short *)malloc(width*height*sizeof(unsigned short));
	for (loop = 0 ; loop < width*height ; loop++) {
    1664:	80bff11e 	bne	r16,r2,162c <init_sobel_arrays+0x94>
		sobel_x_result[loop] = 0;
		sobel_y_result[loop] = 0;
		sobel_result[loop] = 0;
		sobel_rgb565[loop] = 0;
	}
}
    1668:	dfc00217 	ldw	ra,8(sp)
    166c:	dc400117 	ldw	r17,4(sp)
    1670:	dc000017 	ldw	r16,0(sp)
    1674:	dec00304 	addi	sp,sp,12
    1678:	f800283a 	ret

0000167c <sobel_mac>:

short sobel_mac( unsigned char *pixels,
                 int x,
                 int y,
                 const char *filter,
                 unsigned int width ) {
    167c:	defff904 	addi	sp,sp,-28
    1680:	da400717 	ldw	r9,28(sp)
   short result = 0;

   for (dy = -1 ; dy < 2 ; dy++) {
      for (dx = -1 ; dx < 2 ; dx++) {
         result += filter[(dy+1)*3+(dx+1)]*
                   pixels[(y+dy)*width+(x+dx)];
    1684:	30ffffc4 	addi	r3,r6,-1
    1688:	30800044 	addi	r2,r6,1
    168c:	3251383a 	mul	r8,r6,r9
    1690:	1a47383a 	mul	r3,r3,r9
    1694:	1245383a 	mul	r2,r2,r9
    1698:	29bfffc4 	addi	r6,r5,-1
    169c:	2b000044 	addi	r12,r5,1
    16a0:	2211883a 	add	r8,r4,r8
    16a4:	2155883a 	add	r10,r4,r5
    16a8:	2193883a 	add	r9,r4,r6

short sobel_mac( unsigned char *pixels,
                 int x,
                 int y,
                 const char *filter,
                 unsigned int width ) {
    16ac:	dfc00615 	stw	ra,24(sp)
    16b0:	dd400515 	stw	r21,20(sp)
    16b4:	dd000415 	stw	r20,16(sp)
    16b8:	dcc00315 	stw	r19,12(sp)
    16bc:	dc800215 	stw	r18,8(sp)
    16c0:	dc400115 	stw	r17,4(sp)
    16c4:	dc000015 	stw	r16,0(sp)
   short result = 0;

   for (dy = -1 ; dy < 2 ; dy++) {
      for (dx = -1 ; dx < 2 ; dx++) {
         result += filter[(dy+1)*3+(dx+1)]*
                   pixels[(y+dy)*width+(x+dx)];
    16c8:	2085883a 	add	r2,r4,r2
    16cc:	415b883a 	add	r13,r8,r5
    16d0:	4197883a 	add	r11,r8,r6
    16d4:	50d5883a 	add	r10,r10,r3
    16d8:	48d3883a 	add	r9,r9,r3
    16dc:	2309883a 	add	r4,r4,r12
   short dy,dx;
   short result = 0;

   for (dy = -1 ; dy < 2 ; dy++) {
      for (dx = -1 ; dx < 2 ; dx++) {
         result += filter[(dy+1)*3+(dx+1)]*
    16e0:	54400003 	ldbu	r17,0(r10)
    16e4:	4c000003 	ldbu	r16,0(r9)
    16e8:	3a800007 	ldb	r10,0(r7)
                   pixels[(y+dy)*width+(x+dx)];
    16ec:	20c9883a 	add	r4,r4,r3
   short dy,dx;
   short result = 0;

   for (dy = -1 ; dy < 2 ; dy++) {
      for (dx = -1 ; dx < 2 ; dx++) {
         result += filter[(dy+1)*3+(dx+1)]*
    16f0:	6c800003 	ldbu	r18,0(r13)
    16f4:	5fc00003 	ldbu	ra,0(r11)
    16f8:	3b400107 	ldb	r13,4(r7)
                   pixels[(y+dy)*width+(x+dx)];
    16fc:	4317883a 	add	r11,r8,r12
   short dy,dx;
   short result = 0;

   for (dy = -1 ; dy < 2 ; dy++) {
      for (dx = -1 ; dx < 2 ; dx++) {
         result += filter[(dy+1)*3+(dx+1)]*
    1700:	3a4000c7 	ldb	r9,3(r7)
                   pixels[(y+dy)*width+(x+dx)];
    1704:	118d883a 	add	r6,r2,r6
    1708:	114b883a 	add	r5,r2,r5
   short dy,dx;
   short result = 0;

   for (dy = -1 ; dy < 2 ; dy++) {
      for (dx = -1 ; dx < 2 ; dx++) {
         result += filter[(dy+1)*3+(dx+1)]*
    170c:	3b800047 	ldb	r14,1(r7)
    1710:	25000003 	ldbu	r20,0(r4)
    1714:	3a000087 	ldb	r8,2(r7)
    1718:	5cc00003 	ldbu	r19,0(r11)
    171c:	39000147 	ldb	r4,5(r7)
                   pixels[(y+dy)*width+(x+dx)];
      }
   }

   return result;
    1720:	33c00003 	ldbu	r15,0(r6)
    1724:	3ac00187 	ldb	r11,6(r7)
    1728:	2d400003 	ldbu	r21,0(r5)
    172c:	398001c7 	ldb	r6,7(r7)
   short result = 0;

   for (dy = -1 ; dy < 2 ; dy++) {
      for (dx = -1 ; dx < 2 ; dx++) {
         result += filter[(dy+1)*3+(dx+1)]*
                   pixels[(y+dy)*width+(x+dx)];
    1730:	130b883a 	add	r5,r2,r12
      }
   }

   return result;
    1734:	2b000003 	ldbu	r12,0(r5)
    1738:	39400207 	ldb	r5,8(r7)
   short dy,dx;
   short result = 0;

   for (dy = -1 ; dy < 2 ; dy++) {
      for (dx = -1 ; dx < 2 ; dx++) {
         result += filter[(dy+1)*3+(dx+1)]*
    173c:	8295383a 	mul	r10,r16,r10
    1740:	8b8f383a 	mul	r7,r17,r14
    1744:	9347383a 	mul	r3,r18,r13
    1748:	fa53383a 	mul	r9,ra,r9
    174c:	a211383a 	mul	r8,r20,r8
    1750:	9909383a 	mul	r4,r19,r4
                   pixels[(y+dy)*width+(x+dx)];
      }
   }

   return result;
    1754:	7ac5383a 	mul	r2,r15,r11
    1758:	a98d383a 	mul	r6,r21,r6
    175c:	614b383a 	mul	r5,r12,r5
   short dy,dx;
   short result = 0;

   for (dy = -1 ; dy < 2 ; dy++) {
      for (dx = -1 ; dx < 2 ; dx++) {
         result += filter[(dy+1)*3+(dx+1)]*
    1760:	3a8f883a 	add	r7,r7,r10
    1764:	1a47883a 	add	r3,r3,r9
    1768:	3a0f883a 	add	r7,r7,r8
    176c:	1907883a 	add	r3,r3,r4
                   pixels[(y+dy)*width+(x+dx)];
      }
   }

   return result;
    1770:	1185883a 	add	r2,r2,r6
   short dy,dx;
   short result = 0;

   for (dy = -1 ; dy < 2 ; dy++) {
      for (dx = -1 ; dx < 2 ; dx++) {
         result += filter[(dy+1)*3+(dx+1)]*
    1774:	38c7883a 	add	r3,r7,r3
                   pixels[(y+dy)*width+(x+dx)];
      }
   }

   return result;
    1778:	1145883a 	add	r2,r2,r5
}
    177c:	1885883a 	add	r2,r3,r2
    1780:	dfc00617 	ldw	ra,24(sp)
    1784:	dd400517 	ldw	r21,20(sp)
    1788:	dd000417 	ldw	r20,16(sp)
    178c:	dcc00317 	ldw	r19,12(sp)
    1790:	dc800217 	ldw	r18,8(sp)
    1794:	dc400117 	ldw	r17,4(sp)
    1798:	dc000017 	ldw	r16,0(sp)
    179c:	dec00704 	addi	sp,sp,28
    17a0:	f800283a 	ret

000017a4 <sobel_x>:

void sobel_x( unsigned char *source ) {
    17a4:	defff604 	addi	sp,sp,-40
    17a8:	dc400115 	stw	r17,4(sp)
   int x,y;
   short result = 0;
   for (y = 1 ; y < (sobel_height-1) ; y++) {
    17ac:	d4671d17 	ldw	r17,-25484(gp)
   }

   return result;
}

void sobel_x( unsigned char *source ) {
    17b0:	dfc00915 	stw	ra,36(sp)
    17b4:	df000815 	stw	fp,32(sp)
    17b8:	ddc00715 	stw	r23,28(sp)
    17bc:	dd800615 	stw	r22,24(sp)
    17c0:	dd400515 	stw	r21,20(sp)
    17c4:	dd000415 	stw	r20,16(sp)
    17c8:	dcc00315 	stw	r19,12(sp)
    17cc:	dc800215 	stw	r18,8(sp)
    17d0:	dc000015 	stw	r16,0(sp)
   int x,y;
   short result = 0;
   for (y = 1 ; y < (sobel_height-1) ; y++) {
    17d4:	8c7fffc4 	addi	r17,r17,-1
    17d8:	00800044 	movi	r2,1
    17dc:	14402e0e 	bge	r2,r17,1898 <sobel_x+0xf4>
    17e0:	d3671b17 	ldw	r13,-25492(gp)
    17e4:	d3e71e17 	ldw	r15,-25480(gp)
    17e8:	03800084 	movi	r14,2
    17ec:	6b65883a 	add	r18,r13,r13
    17f0:	9385883a 	add	r2,r18,r14
    17f4:	2359883a 	add	r12,r4,r13
    17f8:	789f883a 	add	r15,r15,r2
      for (x = 1 ; x < (sobel_width-1) ; x++) {
    17fc:	7027883a 	mov	r19,r14
    1800:	736bc83a 	sub	r21,r14,r13
    1804:	6ba9883a 	add	r20,r13,r14
    1808:	9b402f0e 	bge	r19,r13,18c8 <sobel_x+0x124>
    180c:	637f883a 	add	ra,r12,r13
    1810:	7021883a 	mov	r16,r14
    1814:	6357c83a 	sub	r11,r12,r13
    1818:	ab0b883a 	add	r5,r21,r12
    181c:	62800084 	addi	r10,r12,2
    1820:	f813883a 	mov	r9,ra
    1824:	a311883a 	add	r8,r20,r12
    1828:	780f883a 	mov	r7,r15
    182c:	600d883a 	mov	r6,r12
			result += gx_array[1][2]*source[(y)*sobel_width+(x+1)];
			result += gx_array[2][0]*source[(y+1)*sobel_width+(x-1)];
			result += gx_array[2][1]*source[(y+1)*sobel_width+(x)];
			result += gx_array[2][2]*source[(y+1)*sobel_width+(x+1)];

			sobel_x_result[y*sobel_width+x] = result;//sobel_mac(source,x,y,gx_array,sobel_width);
    1830:	29000003 	ldbu	r4,0(r5)
    1834:	40c00003 	ldbu	r3,0(r8)
    1838:	37000003 	ldbu	fp,0(r6)
    183c:	50800003 	ldbu	r2,0(r10)
    1840:	20c7883a 	add	r3,r4,r3
    1844:	5dc00003 	ldbu	r23,0(r11)
    1848:	1f07c83a 	sub	r3,r3,fp
    184c:	4d800003 	ldbu	r22,0(r9)
    1850:	1f09c83a 	sub	r4,r3,fp
    1854:	1087883a 	add	r3,r2,r2
    1858:	20c7883a 	add	r3,r4,r3
    185c:	1dc5c83a 	sub	r2,r3,r23
    1860:	1585c83a 	sub	r2,r2,r22
    1864:	3880000d 	sth	r2,0(r7)
    1868:	29400044 	addi	r5,r5,1
    186c:	5ac00044 	addi	r11,r11,1
    1870:	31800044 	addi	r6,r6,1
    1874:	52800044 	addi	r10,r10,1
    1878:	4a400044 	addi	r9,r9,1
    187c:	42000044 	addi	r8,r8,1
    1880:	39c00084 	addi	r7,r7,2

void sobel_x( unsigned char *source ) {
   int x,y;
   short result = 0;
   for (y = 1 ; y < (sobel_height-1) ; y++) {
      for (x = 1 ; x < (sobel_width-1) ; x++) {
    1884:	617fea1e 	bne	r12,r5,1830 <sobel_x+0x8c>
    1888:	73800044 	addi	r14,r14,1
    188c:	f819883a 	mov	r12,ra
    1890:	7c9f883a 	add	r15,r15,r18
}

void sobel_x( unsigned char *source ) {
   int x,y;
   short result = 0;
   for (y = 1 ; y < (sobel_height-1) ; y++) {
    1894:	847fdc16 	blt	r16,r17,1808 <sobel_x+0x64>
			result += gx_array[2][2]*source[(y+1)*sobel_width+(x+1)];

			sobel_x_result[y*sobel_width+x] = result;//sobel_mac(source,x,y,gx_array,sobel_width);
      }
   }
}
    1898:	dfc00917 	ldw	ra,36(sp)
    189c:	df000817 	ldw	fp,32(sp)
    18a0:	ddc00717 	ldw	r23,28(sp)
    18a4:	dd800617 	ldw	r22,24(sp)
    18a8:	dd400517 	ldw	r21,20(sp)
    18ac:	dd000417 	ldw	r20,16(sp)
    18b0:	dcc00317 	ldw	r19,12(sp)
    18b4:	dc800217 	ldw	r18,8(sp)
    18b8:	dc400117 	ldw	r17,4(sp)
    18bc:	dc000017 	ldw	r16,0(sp)
    18c0:	dec00a04 	addi	sp,sp,40
    18c4:	f800283a 	ret
    18c8:	7021883a 	mov	r16,r14
    18cc:	637f883a 	add	ra,r12,r13
    18d0:	73800044 	addi	r14,r14,1
    18d4:	f819883a 	mov	r12,ra
    18d8:	7c9f883a 	add	r15,r15,r18
}

void sobel_x( unsigned char *source ) {
   int x,y;
   short result = 0;
   for (y = 1 ; y < (sobel_height-1) ; y++) {
    18dc:	847fca16 	blt	r16,r17,1808 <sobel_x+0x64>
    18e0:	003fed06 	br	1898 <sobel_x+0xf4>

000018e4 <sobel_x_with_rgb>:
			sobel_x_result[y*sobel_width+x] = result;//sobel_mac(source,x,y,gx_array,sobel_width);
      }
   }
}

void sobel_x_with_rgb( unsigned char *source ) {
    18e4:	defff604 	addi	sp,sp,-40
    18e8:	dcc00315 	stw	r19,12(sp)
   int x,y;
   short result;

   for (y = 1 ; y < (sobel_height-1) ; y++) {
    18ec:	d4e71d17 	ldw	r19,-25484(gp)
			sobel_x_result[y*sobel_width+x] = result;//sobel_mac(source,x,y,gx_array,sobel_width);
      }
   }
}

void sobel_x_with_rgb( unsigned char *source ) {
    18f0:	dfc00915 	stw	ra,36(sp)
    18f4:	df000815 	stw	fp,32(sp)
    18f8:	ddc00715 	stw	r23,28(sp)
    18fc:	dd800615 	stw	r22,24(sp)
    1900:	dd400515 	stw	r21,20(sp)
    1904:	dd000415 	stw	r20,16(sp)
    1908:	dc800215 	stw	r18,8(sp)
    190c:	dc400115 	stw	r17,4(sp)
    1910:	dc000015 	stw	r16,0(sp)
   int x,y;
   short result;

   for (y = 1 ; y < (sobel_height-1) ; y++) {
    1914:	00800084 	movi	r2,2
    1918:	14c03b0e 	bge	r2,r19,1a08 <sobel_x_with_rgb+0x124>
    191c:	2025883a 	mov	r18,r4
    1920:	d1271b17 	ldw	r4,-25492(gp)
      for (x = 1 ; x < (sobel_width-1) ; x++) {
    	  result = sobel_mac(source,x,y,gx_array,sobel_width);
          sobel_x_result[y*sobel_width+x] = result;
    1924:	d5671e17 	ldw	r21,-25480(gp)
          if (result < 0) {
        	  sobel_rgb565[y*sobel_width+x] = ((-result)>>2)<<5;
    1928:	d5272017 	ldw	r20,-25472(gp)
    192c:	23ffffc4 	addi	r15,r4,-1
    1930:	908f883a 	add	r7,r18,r2
    1934:	9cffffc4 	addi	r19,r19,-1
    1938:	200d883a 	mov	r6,r4
    193c:	04000044 	movi	r16,1
    1940:	31400044 	addi	r5,r6,1
    1944:	294b883a 	add	r5,r5,r5
    1948:	393f883a 	add	ra,r7,r4
    194c:	a15b883a 	add	r13,r20,r5
    1950:	3123883a 	add	r17,r6,r4
			sobel_x_result[y*sobel_width+x] = result;//sobel_mac(source,x,y,gx_array,sobel_width);
      }
   }
}

void sobel_x_with_rgb( unsigned char *source ) {
    1954:	02000044 	movi	r8,1
    1958:	84000044 	addi	r16,r16,1
    195c:	3b3fff84 	addi	r12,r7,-2
    1960:	918d883a 	add	r6,r18,r6
    1964:	9457883a 	add	r11,r18,r17
    1968:	27d5883a 	add	r10,r4,ra
    196c:	a94b883a 	add	r5,r21,r5
    1970:	f813883a 	mov	r9,ra
    1974:	681d883a 	mov	r14,r13
   int x,y;
   short result;

   for (y = 1 ; y < (sobel_height-1) ; y++) {
      for (x = 1 ; x < (sobel_width-1) ; x++) {
    1978:	43c0200e 	bge	r8,r15,19fc <sobel_x_with_rgb+0x118>
   short dy,dx;
   short result = 0;

   for (dy = -1 ; dy < 2 ; dy++) {
      for (dx = -1 ; dx < 2 ; dx++) {
         result += filter[(dy+1)*3+(dx+1)]*
    197c:	50800003 	ldbu	r2,0(r10)
    1980:	3dc00003 	ldbu	r23,0(r7)
    1984:	37000003 	ldbu	fp,0(r6)
    1988:	48c00003 	ldbu	r3,0(r9)
    198c:	b8af883a 	add	r23,r23,r2
    1990:	65800003 	ldbu	r22,0(r12)
    1994:	bf2fc83a 	sub	r23,r23,fp
    1998:	58800003 	ldbu	r2,0(r11)
    199c:	bf2fc83a 	sub	r23,r23,fp
    19a0:	18c7883a 	add	r3,r3,r3
    19a4:	b8c7883a 	add	r3,r23,r3
    19a8:	1d87c83a 	sub	r3,r3,r22
    19ac:	1885c83a 	sub	r2,r3,r2
   short result;

   for (y = 1 ; y < (sobel_height-1) ; y++) {
      for (x = 1 ; x < (sobel_width-1) ; x++) {
    	  result = sobel_mac(source,x,y,gx_array,sobel_width);
          sobel_x_result[y*sobel_width+x] = result;
    19b0:	2880000d 	sth	r2,0(r5)
          if (result < 0) {
    19b4:	10bfffcc 	andi	r2,r2,65535
    19b8:	10a0001c 	xori	r2,r2,32768
    19bc:	10a00004 	addi	r2,r2,-32768
        	  sobel_rgb565[y*sobel_width+x] = ((-result)>>2)<<5;
          } else {
        	  sobel_rgb565[y*sobel_width+x] = ((result>>3)&0x1F)<<11;
    19c0:	1007d0fa 	srai	r3,r2,3
   short result = 0;

   for (dy = -1 ; dy < 2 ; dy++) {
      for (dx = -1 ; dx < 2 ; dx++) {
         result += filter[(dy+1)*3+(dx+1)]*
                   pixels[(y+dy)*width+(x+dx)];
    19c4:	42000044 	addi	r8,r8,1

   for (y = 1 ; y < (sobel_height-1) ; y++) {
      for (x = 1 ; x < (sobel_width-1) ; x++) {
    	  result = sobel_mac(source,x,y,gx_array,sobel_width);
          sobel_x_result[y*sobel_width+x] = result;
          if (result < 0) {
    19c8:	10001b16 	blt	r2,zero,1a38 <sobel_x_with_rgb+0x154>
        	  sobel_rgb565[y*sobel_width+x] = ((-result)>>2)<<5;
          } else {
        	  sobel_rgb565[y*sobel_width+x] = ((result>>3)&0x1F)<<11;
    19cc:	180692fa 	slli	r3,r3,11
    19d0:	68c0000d 	sth	r3,0(r13)
    19d4:	73800084 	addi	r14,r14,2
    19d8:	6b400084 	addi	r13,r13,2
    19dc:	63000044 	addi	r12,r12,1
    19e0:	39c00044 	addi	r7,r7,1
    19e4:	31800044 	addi	r6,r6,1
    19e8:	4a400044 	addi	r9,r9,1
    19ec:	5ac00044 	addi	r11,r11,1
    19f0:	52800044 	addi	r10,r10,1
    19f4:	29400084 	addi	r5,r5,2
void sobel_x_with_rgb( unsigned char *source ) {
   int x,y;
   short result;

   for (y = 1 ; y < (sobel_height-1) ; y++) {
      for (x = 1 ; x < (sobel_width-1) ; x++) {
    19f8:	43ffe016 	blt	r8,r15,197c <sobel_x_with_rgb+0x98>
    19fc:	880d883a 	mov	r6,r17
    1a00:	f80f883a 	mov	r7,ra

void sobel_x_with_rgb( unsigned char *source ) {
   int x,y;
   short result;

   for (y = 1 ; y < (sobel_height-1) ; y++) {
    1a04:	9c3fce1e 	bne	r19,r16,1940 <sobel_x_with_rgb+0x5c>
          } else {
        	  sobel_rgb565[y*sobel_width+x] = ((result>>3)&0x1F)<<11;
          }
      }
   }
}
    1a08:	dfc00917 	ldw	ra,36(sp)
    1a0c:	df000817 	ldw	fp,32(sp)
    1a10:	ddc00717 	ldw	r23,28(sp)
    1a14:	dd800617 	ldw	r22,24(sp)
    1a18:	dd400517 	ldw	r21,20(sp)
    1a1c:	dd000417 	ldw	r20,16(sp)
    1a20:	dcc00317 	ldw	r19,12(sp)
    1a24:	dc800217 	ldw	r18,8(sp)
    1a28:	dc400117 	ldw	r17,4(sp)
    1a2c:	dc000017 	ldw	r16,0(sp)
    1a30:	dec00a04 	addi	sp,sp,40
    1a34:	f800283a 	ret
   for (y = 1 ; y < (sobel_height-1) ; y++) {
      for (x = 1 ; x < (sobel_width-1) ; x++) {
    	  result = sobel_mac(source,x,y,gx_array,sobel_width);
          sobel_x_result[y*sobel_width+x] = result;
          if (result < 0) {
        	  sobel_rgb565[y*sobel_width+x] = ((-result)>>2)<<5;
    1a38:	0085c83a 	sub	r2,zero,r2
    1a3c:	1005d0ba 	srai	r2,r2,2
    1a40:	1004917a 	slli	r2,r2,5
    1a44:	7080000d 	sth	r2,0(r14)
    1a48:	003fe206 	br	19d4 <sobel_x_with_rgb+0xf0>

00001a4c <sobel_y>:
          }
      }
   }
}

void sobel_y( unsigned char *source ) {
    1a4c:	defff704 	addi	sp,sp,-36
    1a50:	dc400115 	stw	r17,4(sp)
   int x,y;
   short result = 0;
   for (y = 1 ; y < (sobel_height-1) ; y++) {
    1a54:	d4671d17 	ldw	r17,-25484(gp)
          }
      }
   }
}

void sobel_y( unsigned char *source ) {
    1a58:	dfc00815 	stw	ra,32(sp)
    1a5c:	ddc00715 	stw	r23,28(sp)
    1a60:	dd800615 	stw	r22,24(sp)
    1a64:	dd400515 	stw	r21,20(sp)
    1a68:	dd000415 	stw	r20,16(sp)
    1a6c:	dcc00315 	stw	r19,12(sp)
    1a70:	dc800215 	stw	r18,8(sp)
    1a74:	dc000015 	stw	r16,0(sp)
   int x,y;
   short result = 0;
   for (y = 1 ; y < (sobel_height-1) ; y++) {
    1a78:	8c7fffc4 	addi	r17,r17,-1
    1a7c:	00800044 	movi	r2,1
    1a80:	14402d0e 	bge	r2,r17,1b38 <sobel_y+0xec>
    1a84:	d3e71b17 	ldw	r15,-25492(gp)
    1a88:	d3a71f17 	ldw	r14,-25476(gp)
    1a8c:	03400084 	movi	r13,2
    1a90:	7bff883a 	add	ra,r15,r15
    1a94:	fb67883a 	add	r19,ra,r13
    1a98:	74dd883a 	add	r14,r14,r19
      for (x = 1 ; x < (sobel_width-1) ; x++) {
    1a9c:	6825883a 	mov	r18,r13
    1aa0:	f8a9883a 	add	r20,ra,r2
    1aa4:	6821883a 	mov	r16,r13
    1aa8:	93c01f0e 	bge	r18,r15,1b28 <sobel_y+0xdc>
    1aac:	f90d883a 	add	r6,ra,r4
    1ab0:	6821883a 	mov	r16,r13
    1ab4:	22c00044 	addi	r11,r4,1
    1ab8:	21400084 	addi	r5,r4,2
    1abc:	a115883a 	add	r10,r20,r4
    1ac0:	9913883a 	add	r9,r19,r4
    1ac4:	33d9c83a 	sub	r12,r6,r15
    1ac8:	7011883a 	mov	r8,r14
    1acc:	200f883a 	mov	r7,r4
    	    result += gy_array[1][2]*source[(y)*sobel_width+(x+1)];
    	    result += gy_array[2][0]*source[(y+1)*sobel_width+(x-1)];
			result += gy_array[2][1]*source[(y+1)*sobel_width+(x)];
			result += gy_array[2][2]*source[(y+1)*sobel_width+(x+1)];

			sobel_y_result[y*sobel_width+x] = result ;// sobel_mac(source,x,y,gy_array,sobel_width);
    1ad0:	3d800003 	ldbu	r22,0(r7)
    1ad4:	28c00003 	ldbu	r3,0(r5)
    1ad8:	58800003 	ldbu	r2,0(r11)
    1adc:	55400003 	ldbu	r21,0(r10)
    1ae0:	b0c7883a 	add	r3,r22,r3
    1ae4:	1085883a 	add	r2,r2,r2
    1ae8:	35c00003 	ldbu	r23,0(r6)
    1aec:	1887883a 	add	r3,r3,r2
    1af0:	4d800003 	ldbu	r22,0(r9)
    1af4:	1d47c83a 	sub	r3,r3,r21
    1af8:	1d47c83a 	sub	r3,r3,r21
    1afc:	1dc5c83a 	sub	r2,r3,r23
    1b00:	1585c83a 	sub	r2,r2,r22
    1b04:	4080000d 	sth	r2,0(r8)
    1b08:	29400044 	addi	r5,r5,1
    1b0c:	39c00044 	addi	r7,r7,1
    1b10:	5ac00044 	addi	r11,r11,1
    1b14:	31800044 	addi	r6,r6,1
    1b18:	52800044 	addi	r10,r10,1
    1b1c:	4a400044 	addi	r9,r9,1
    1b20:	42000084 	addi	r8,r8,2

void sobel_y( unsigned char *source ) {
   int x,y;
   short result = 0;
   for (y = 1 ; y < (sobel_height-1) ; y++) {
      for (x = 1 ; x < (sobel_width-1) ; x++) {
    1b24:	617fea1e 	bne	r12,r5,1ad0 <sobel_y+0x84>
    1b28:	6b400044 	addi	r13,r13,1
    1b2c:	23c9883a 	add	r4,r4,r15
    1b30:	77dd883a 	add	r14,r14,ra
}

void sobel_y( unsigned char *source ) {
   int x,y;
   short result = 0;
   for (y = 1 ; y < (sobel_height-1) ; y++) {
    1b34:	847fdb16 	blt	r16,r17,1aa4 <sobel_y+0x58>
			result += gy_array[2][2]*source[(y+1)*sobel_width+(x+1)];

			sobel_y_result[y*sobel_width+x] = result ;// sobel_mac(source,x,y,gy_array,sobel_width);
      }
   }
}
    1b38:	dfc00817 	ldw	ra,32(sp)
    1b3c:	ddc00717 	ldw	r23,28(sp)
    1b40:	dd800617 	ldw	r22,24(sp)
    1b44:	dd400517 	ldw	r21,20(sp)
    1b48:	dd000417 	ldw	r20,16(sp)
    1b4c:	dcc00317 	ldw	r19,12(sp)
    1b50:	dc800217 	ldw	r18,8(sp)
    1b54:	dc400117 	ldw	r17,4(sp)
    1b58:	dc000017 	ldw	r16,0(sp)
    1b5c:	dec00904 	addi	sp,sp,36
    1b60:	f800283a 	ret

00001b64 <sobel_y_with_rgb>:

void sobel_y_with_rgb( unsigned char *source ) {
    1b64:	defff504 	addi	sp,sp,-44
    1b68:	dd400615 	stw	r21,24(sp)
   int x,y;
   short result;

   for (y = 1 ; y < (sobel_height-1) ; y++) {
    1b6c:	d5671d17 	ldw	r21,-25484(gp)
			sobel_y_result[y*sobel_width+x] = result ;// sobel_mac(source,x,y,gy_array,sobel_width);
      }
   }
}

void sobel_y_with_rgb( unsigned char *source ) {
    1b70:	dfc00a15 	stw	ra,40(sp)
    1b74:	df000915 	stw	fp,36(sp)
    1b78:	ddc00815 	stw	r23,32(sp)
    1b7c:	dd800715 	stw	r22,28(sp)
    1b80:	dd000515 	stw	r20,20(sp)
    1b84:	dcc00415 	stw	r19,16(sp)
    1b88:	dc800315 	stw	r18,12(sp)
    1b8c:	dc400215 	stw	r17,8(sp)
    1b90:	dc000115 	stw	r16,4(sp)
   int x,y;
   short result;

   for (y = 1 ; y < (sobel_height-1) ; y++) {
    1b94:	00800084 	movi	r2,2
    1b98:	1540470e 	bge	r2,r21,1cb8 <sobel_y_with_rgb+0x154>
    1b9c:	d4271b17 	ldw	r16,-25492(gp)
      for (x = 1 ; x < (sobel_width-1) ; x++) {
    	  result = sobel_mac(source,x,y,gy_array,sobel_width);
         sobel_y_result[y*sobel_width+x] = result;
    1ba0:	d7271f17 	ldw	fp,-25476(gp)
         if (result < 0) {
       	  sobel_rgb565[y*sobel_width+x] = ((-result)>>2)<<5;
    1ba4:	d5e72017 	ldw	r23,-25472(gp)
    1ba8:	842d883a 	add	r22,r16,r16
    1bac:	2029883a 	mov	r20,r4
    1bb0:	25bf883a 	add	ra,r4,r22
    1bb4:	80c00084 	addi	r3,r16,2
    1bb8:	813fffc4 	addi	r4,r16,-1
    1bbc:	a2800044 	addi	r10,r20,1
    1bc0:	07ffc83a 	sub	ra,zero,ra
    1bc4:	ad7fffc4 	addi	r21,r21,-1
    1bc8:	8005883a 	mov	r2,r16
    1bcc:	04400044 	movi	r17,1
    1bd0:	d8c00015 	stw	r3,0(sp)
    1bd4:	d8c00017 	ldw	r3,0(sp)
    1bd8:	12000044 	addi	r8,r2,1
    1bdc:	4211883a 	add	r8,r8,r8
    1be0:	ba1d883a 	add	r14,r23,r8
    1be4:	1427883a 	add	r19,r2,r16
    1be8:	55a5883a 	add	r18,r10,r22
    1bec:	1885883a 	add	r2,r3,r2
    1bf0:	8c400044 	addi	r17,r17,1
    1bf4:	537fffc4 	addi	r13,r10,-1
    1bf8:	53000044 	addi	r12,r10,1
    1bfc:	a4d7883a 	add	r11,r20,r19
    1c00:	a093883a 	add	r9,r20,r2
    1c04:	e211883a 	add	r8,fp,r8
			sobel_y_result[y*sobel_width+x] = result ;// sobel_mac(source,x,y,gy_array,sobel_width);
      }
   }
}

void sobel_y_with_rgb( unsigned char *source ) {
    1c08:	900f883a 	mov	r7,r18
    1c0c:	701f883a 	mov	r15,r14
    1c10:	00000b06 	br	1c40 <sobel_y_with_rgb+0xdc>
    	  result = sobel_mac(source,x,y,gy_array,sobel_width);
         sobel_y_result[y*sobel_width+x] = result;
         if (result < 0) {
       	  sobel_rgb565[y*sobel_width+x] = ((-result)>>2)<<5;
         } else {
       	  sobel_rgb565[y*sobel_width+x] = ((result>>3)&0x1F)<<11;
    1c14:	180692fa 	slli	r3,r3,11
    1c18:	70c0000d 	sth	r3,0(r14)
    1c1c:	7bc00084 	addi	r15,r15,2
    1c20:	73800084 	addi	r14,r14,2
    1c24:	6b400044 	addi	r13,r13,1
    1c28:	52800044 	addi	r10,r10,1
    1c2c:	63000044 	addi	r12,r12,1
    1c30:	5ac00044 	addi	r11,r11,1
    1c34:	39c00044 	addi	r7,r7,1
    1c38:	4a400044 	addi	r9,r9,1
    1c3c:	42000084 	addi	r8,r8,2
void sobel_y_with_rgb( unsigned char *source ) {
   int x,y;
   short result;

   for (y = 1 ; y < (sobel_height-1) ; y++) {
      for (x = 1 ; x < (sobel_width-1) ; x++) {
    1c40:	3fc5883a 	add	r2,r7,ra
    1c44:	1100180e 	bge	r2,r4,1ca8 <sobel_y_with_rgb+0x144>
   short dy,dx;
   short result = 0;

   for (dy = -1 ; dy < 2 ; dy++) {
      for (dx = -1 ; dx < 2 ; dx++) {
         result += filter[(dy+1)*3+(dx+1)]*
    1c48:	60800003 	ldbu	r2,0(r12)
    1c4c:	69800003 	ldbu	r6,0(r13)
    1c50:	50c00003 	ldbu	r3,0(r10)
    1c54:	39400003 	ldbu	r5,0(r7)
    1c58:	308d883a 	add	r6,r6,r2
    1c5c:	18c7883a 	add	r3,r3,r3
    1c60:	58800003 	ldbu	r2,0(r11)
    1c64:	30c7883a 	add	r3,r6,r3
    1c68:	1947c83a 	sub	r3,r3,r5
    1c6c:	49800003 	ldbu	r6,0(r9)
    1c70:	1947c83a 	sub	r3,r3,r5
    1c74:	1885c83a 	sub	r2,r3,r2
    1c78:	1185c83a 	sub	r2,r2,r6
   short result;

   for (y = 1 ; y < (sobel_height-1) ; y++) {
      for (x = 1 ; x < (sobel_width-1) ; x++) {
    	  result = sobel_mac(source,x,y,gy_array,sobel_width);
         sobel_y_result[y*sobel_width+x] = result;
    1c7c:	4080000d 	sth	r2,0(r8)
         if (result < 0) {
    1c80:	10bfffcc 	andi	r2,r2,65535
    1c84:	10a0001c 	xori	r2,r2,32768
    1c88:	10a00004 	addi	r2,r2,-32768
       	  sobel_rgb565[y*sobel_width+x] = ((-result)>>2)<<5;
         } else {
       	  sobel_rgb565[y*sobel_width+x] = ((result>>3)&0x1F)<<11;
    1c8c:	1007d0fa 	srai	r3,r2,3

   for (y = 1 ; y < (sobel_height-1) ; y++) {
      for (x = 1 ; x < (sobel_width-1) ; x++) {
    	  result = sobel_mac(source,x,y,gy_array,sobel_width);
         sobel_y_result[y*sobel_width+x] = result;
         if (result < 0) {
    1c90:	103fe00e 	bge	r2,zero,1c14 <sobel_y_with_rgb+0xb0>
       	  sobel_rgb565[y*sobel_width+x] = ((-result)>>2)<<5;
    1c94:	0085c83a 	sub	r2,zero,r2
    1c98:	1005d0ba 	srai	r2,r2,2
    1c9c:	1004917a 	slli	r2,r2,5
    1ca0:	7880000d 	sth	r2,0(r15)
    1ca4:	003fdd06 	br	1c1c <sobel_y_with_rgb+0xb8>
    1ca8:	9415c83a 	sub	r10,r18,r16
    1cac:	fc3fc83a 	sub	ra,ra,r16
    1cb0:	9805883a 	mov	r2,r19

void sobel_y_with_rgb( unsigned char *source ) {
   int x,y;
   short result;

   for (y = 1 ; y < (sobel_height-1) ; y++) {
    1cb4:	ac7fc71e 	bne	r21,r17,1bd4 <sobel_y_with_rgb+0x70>
         } else {
       	  sobel_rgb565[y*sobel_width+x] = ((result>>3)&0x1F)<<11;
         }
      }
   }
}
    1cb8:	dfc00a17 	ldw	ra,40(sp)
    1cbc:	df000917 	ldw	fp,36(sp)
    1cc0:	ddc00817 	ldw	r23,32(sp)
    1cc4:	dd800717 	ldw	r22,28(sp)
    1cc8:	dd400617 	ldw	r21,24(sp)
    1ccc:	dd000517 	ldw	r20,20(sp)
    1cd0:	dcc00417 	ldw	r19,16(sp)
    1cd4:	dc800317 	ldw	r18,12(sp)
    1cd8:	dc400217 	ldw	r17,8(sp)
    1cdc:	dc000117 	ldw	r16,4(sp)
    1ce0:	dec00b04 	addi	sp,sp,44
    1ce4:	f800283a 	ret

00001ce8 <sobel_threshold>:

void sobel_threshold(short threshold) {
	int x,y,arrayindex;
	short sum,value;
	for (y = 1 ; y < (sobel_height-1) ; y++) {
    1ce8:	d0a71d17 	ldw	r2,-25484(gp)
    1cec:	02400084 	movi	r9,2
    1cf0:	4880290e 	bge	r9,r2,1d98 <sobel_threshold+0xb0>
    1cf4:	223fffcc 	andi	r8,r4,65535
    1cf8:	d0e71b17 	ldw	r3,-25492(gp)
    1cfc:	4220001c 	xori	r8,r8,32768
    1d00:	01c00044 	movi	r7,1
    1d04:	42200004 	addi	r8,r8,-32768
		for (x = 1 ; x < (sobel_width-1) ; x++) {
    1d08:	48c0200e 	bge	r9,r3,1d8c <sobel_threshold+0xa4>
    1d0c:	01400044 	movi	r5,1
    1d10:	00000c06 	br	1d44 <sobel_threshold+0x5c>
			arrayindex = (y*sobel_width)+x;
			value = sobel_x_result[arrayindex];
			sum = (value < 0) ? -value : value;
			value = sobel_y_result[arrayindex];
			sum += (value < 0) ? -value : value;
			sobel_result[arrayindex] = (sum > threshold) ? 0xFF : 0;
    1d14:	2080000f 	ldh	r2,0(r4)
    1d18:	10001916 	blt	r2,zero,1d80 <sobel_threshold+0x98>
    1d1c:	3085883a 	add	r2,r6,r2
    1d20:	10bfffcc 	andi	r2,r2,65535
    1d24:	10a0001c 	xori	r2,r2,32768
    1d28:	10a00004 	addi	r2,r2,-32768
    1d2c:	4084803a 	cmplt	r2,r8,r2
    1d30:	0085c83a 	sub	r2,zero,r2
    1d34:	18800005 	stb	r2,0(r3)

void sobel_threshold(short threshold) {
	int x,y,arrayindex;
	short sum,value;
	for (y = 1 ; y < (sobel_height-1) ; y++) {
		for (x = 1 ; x < (sobel_width-1) ; x++) {
    1d38:	d0e71b17 	ldw	r3,-25492(gp)
    1d3c:	18bfffc4 	addi	r2,r3,-1
    1d40:	2880110e 	bge	r5,r2,1d88 <sobel_threshold+0xa0>
			arrayindex = (y*sobel_width)+x;
			value = sobel_x_result[arrayindex];
    1d44:	38c7383a 	mul	r3,r7,r3
			sum = (value < 0) ? -value : value;
			value = sobel_y_result[arrayindex];
    1d48:	d1a71f17 	ldw	r6,-25476(gp)
	int x,y,arrayindex;
	short sum,value;
	for (y = 1 ; y < (sobel_height-1) ; y++) {
		for (x = 1 ; x < (sobel_width-1) ; x++) {
			arrayindex = (y*sobel_width)+x;
			value = sobel_x_result[arrayindex];
    1d4c:	d1271e17 	ldw	r4,-25480(gp)
    1d50:	1947883a 	add	r3,r3,r5
    1d54:	18c5883a 	add	r2,r3,r3
			sum = (value < 0) ? -value : value;
			value = sobel_y_result[arrayindex];
    1d58:	308d883a 	add	r6,r6,r2
	int x,y,arrayindex;
	short sum,value;
	for (y = 1 ; y < (sobel_height-1) ; y++) {
		for (x = 1 ; x < (sobel_width-1) ; x++) {
			arrayindex = (y*sobel_width)+x;
			value = sobel_x_result[arrayindex];
    1d5c:	2089883a 	add	r4,r4,r2
			sum = (value < 0) ? -value : value;
			value = sobel_y_result[arrayindex];
			sum += (value < 0) ? -value : value;
			sobel_result[arrayindex] = (sum > threshold) ? 0xFF : 0;
    1d60:	3180000f 	ldh	r6,0(r6)
    1d64:	d0a71c17 	ldw	r2,-25488(gp)

void sobel_threshold(short threshold) {
	int x,y,arrayindex;
	short sum,value;
	for (y = 1 ; y < (sobel_height-1) ; y++) {
		for (x = 1 ; x < (sobel_width-1) ; x++) {
    1d68:	29400044 	addi	r5,r5,1
			arrayindex = (y*sobel_width)+x;
			value = sobel_x_result[arrayindex];
			sum = (value < 0) ? -value : value;
			value = sobel_y_result[arrayindex];
			sum += (value < 0) ? -value : value;
			sobel_result[arrayindex] = (sum > threshold) ? 0xFF : 0;
    1d6c:	10c7883a 	add	r3,r2,r3
    1d70:	303fe80e 	bge	r6,zero,1d14 <sobel_threshold+0x2c>
    1d74:	2080000f 	ldh	r2,0(r4)
    1d78:	018dc83a 	sub	r6,zero,r6
    1d7c:	103fe70e 	bge	r2,zero,1d1c <sobel_threshold+0x34>
    1d80:	0085c83a 	sub	r2,zero,r2
    1d84:	003fe506 	br	1d1c <sobel_threshold+0x34>
    1d88:	d0a71d17 	ldw	r2,-25484(gp)
}

void sobel_threshold(short threshold) {
	int x,y,arrayindex;
	short sum,value;
	for (y = 1 ; y < (sobel_height-1) ; y++) {
    1d8c:	39c00044 	addi	r7,r7,1
    1d90:	113fffc4 	addi	r4,r2,-1
    1d94:	393fdc16 	blt	r7,r4,1d08 <sobel_threshold+0x20>
    1d98:	f800283a 	ret

00001d9c <GetSobel_rgb>:
	}
}

unsigned short *GetSobel_rgb() {
	return sobel_rgb565;
}
    1d9c:	d0a72017 	ldw	r2,-25472(gp)
    1da0:	f800283a 	ret

00001da4 <GetSobelResult>:

unsigned char *GetSobelResult() {
	return sobel_result;
}
    1da4:	d0a71c17 	ldw	r2,-25488(gp)
    1da8:	f800283a 	ret

00001dac <vga_set_pointer>:

#include <system.h>
#include <io.h>

void vga_set_pointer( void* image ) {
	IOWR_32DIRECT(VGA_DMA_0_BASE,0,(int)image);
    1dac:	00804034 	movhi	r2,256
    1db0:	10843404 	addi	r2,r2,4304
    1db4:	11000035 	stwio	r4,0(r2)
    1db8:	f800283a 	ret

00001dbc <vga_set_swap>:
}

void vga_set_swap(char swap) {
	IOWR_8DIRECT(VGA_DMA_0_BASE,4,swap);
    1dbc:	00804034 	movhi	r2,256
    1dc0:	10843504 	addi	r2,r2,4308
    1dc4:	11000025 	stbio	r4,0(r2)
    1dc8:	f800283a 	ret

00001dcc <__divsi3>:
    1dcc:	20001b16 	blt	r4,zero,1e3c <__divsi3+0x70>
    1dd0:	000f883a 	mov	r7,zero
    1dd4:	28001616 	blt	r5,zero,1e30 <__divsi3+0x64>
    1dd8:	200d883a 	mov	r6,r4
    1ddc:	29001a2e 	bgeu	r5,r4,1e48 <__divsi3+0x7c>
    1de0:	00800804 	movi	r2,32
    1de4:	00c00044 	movi	r3,1
    1de8:	00000106 	br	1df0 <__divsi3+0x24>
    1dec:	10000d26 	beq	r2,zero,1e24 <__divsi3+0x58>
    1df0:	294b883a 	add	r5,r5,r5
    1df4:	10bfffc4 	addi	r2,r2,-1
    1df8:	18c7883a 	add	r3,r3,r3
    1dfc:	293ffb36 	bltu	r5,r4,1dec <__divsi3+0x20>
    1e00:	0005883a 	mov	r2,zero
    1e04:	18000726 	beq	r3,zero,1e24 <__divsi3+0x58>
    1e08:	0005883a 	mov	r2,zero
    1e0c:	31400236 	bltu	r6,r5,1e18 <__divsi3+0x4c>
    1e10:	314dc83a 	sub	r6,r6,r5
    1e14:	10c4b03a 	or	r2,r2,r3
    1e18:	1806d07a 	srli	r3,r3,1
    1e1c:	280ad07a 	srli	r5,r5,1
    1e20:	183ffa1e 	bne	r3,zero,1e0c <__divsi3+0x40>
    1e24:	38000126 	beq	r7,zero,1e2c <__divsi3+0x60>
    1e28:	0085c83a 	sub	r2,zero,r2
    1e2c:	f800283a 	ret
    1e30:	014bc83a 	sub	r5,zero,r5
    1e34:	39c0005c 	xori	r7,r7,1
    1e38:	003fe706 	br	1dd8 <__divsi3+0xc>
    1e3c:	0109c83a 	sub	r4,zero,r4
    1e40:	01c00044 	movi	r7,1
    1e44:	003fe306 	br	1dd4 <__divsi3+0x8>
    1e48:	00c00044 	movi	r3,1
    1e4c:	003fee06 	br	1e08 <__divsi3+0x3c>

00001e50 <__modsi3>:
    1e50:	20001716 	blt	r4,zero,1eb0 <__modsi3+0x60>
    1e54:	000f883a 	mov	r7,zero
    1e58:	2005883a 	mov	r2,r4
    1e5c:	28001216 	blt	r5,zero,1ea8 <__modsi3+0x58>
    1e60:	2900162e 	bgeu	r5,r4,1ebc <__modsi3+0x6c>
    1e64:	01800804 	movi	r6,32
    1e68:	00c00044 	movi	r3,1
    1e6c:	00000106 	br	1e74 <__modsi3+0x24>
    1e70:	30000a26 	beq	r6,zero,1e9c <__modsi3+0x4c>
    1e74:	294b883a 	add	r5,r5,r5
    1e78:	31bfffc4 	addi	r6,r6,-1
    1e7c:	18c7883a 	add	r3,r3,r3
    1e80:	293ffb36 	bltu	r5,r4,1e70 <__modsi3+0x20>
    1e84:	18000526 	beq	r3,zero,1e9c <__modsi3+0x4c>
    1e88:	1806d07a 	srli	r3,r3,1
    1e8c:	11400136 	bltu	r2,r5,1e94 <__modsi3+0x44>
    1e90:	1145c83a 	sub	r2,r2,r5
    1e94:	280ad07a 	srli	r5,r5,1
    1e98:	183ffb1e 	bne	r3,zero,1e88 <__modsi3+0x38>
    1e9c:	38000126 	beq	r7,zero,1ea4 <__modsi3+0x54>
    1ea0:	0085c83a 	sub	r2,zero,r2
    1ea4:	f800283a 	ret
    1ea8:	014bc83a 	sub	r5,zero,r5
    1eac:	003fec06 	br	1e60 <__modsi3+0x10>
    1eb0:	0109c83a 	sub	r4,zero,r4
    1eb4:	01c00044 	movi	r7,1
    1eb8:	003fe706 	br	1e58 <__modsi3+0x8>
    1ebc:	00c00044 	movi	r3,1
    1ec0:	003ff106 	br	1e88 <__modsi3+0x38>

00001ec4 <__udivsi3>:
    1ec4:	200d883a 	mov	r6,r4
    1ec8:	2900152e 	bgeu	r5,r4,1f20 <__udivsi3+0x5c>
    1ecc:	28001416 	blt	r5,zero,1f20 <__udivsi3+0x5c>
    1ed0:	00800804 	movi	r2,32
    1ed4:	00c00044 	movi	r3,1
    1ed8:	00000206 	br	1ee4 <__udivsi3+0x20>
    1edc:	10000e26 	beq	r2,zero,1f18 <__udivsi3+0x54>
    1ee0:	28000516 	blt	r5,zero,1ef8 <__udivsi3+0x34>
    1ee4:	294b883a 	add	r5,r5,r5
    1ee8:	10bfffc4 	addi	r2,r2,-1
    1eec:	18c7883a 	add	r3,r3,r3
    1ef0:	293ffa36 	bltu	r5,r4,1edc <__udivsi3+0x18>
    1ef4:	18000826 	beq	r3,zero,1f18 <__udivsi3+0x54>
    1ef8:	0005883a 	mov	r2,zero
    1efc:	31400236 	bltu	r6,r5,1f08 <__udivsi3+0x44>
    1f00:	314dc83a 	sub	r6,r6,r5
    1f04:	10c4b03a 	or	r2,r2,r3
    1f08:	1806d07a 	srli	r3,r3,1
    1f0c:	280ad07a 	srli	r5,r5,1
    1f10:	183ffa1e 	bne	r3,zero,1efc <__udivsi3+0x38>
    1f14:	f800283a 	ret
    1f18:	0005883a 	mov	r2,zero
    1f1c:	f800283a 	ret
    1f20:	00c00044 	movi	r3,1
    1f24:	003ff406 	br	1ef8 <__udivsi3+0x34>

00001f28 <__umodsi3>:
    1f28:	2005883a 	mov	r2,r4
    1f2c:	2900122e 	bgeu	r5,r4,1f78 <__umodsi3+0x50>
    1f30:	28001116 	blt	r5,zero,1f78 <__umodsi3+0x50>
    1f34:	01800804 	movi	r6,32
    1f38:	00c00044 	movi	r3,1
    1f3c:	00000206 	br	1f48 <__umodsi3+0x20>
    1f40:	30000c26 	beq	r6,zero,1f74 <__umodsi3+0x4c>
    1f44:	28000516 	blt	r5,zero,1f5c <__umodsi3+0x34>
    1f48:	294b883a 	add	r5,r5,r5
    1f4c:	31bfffc4 	addi	r6,r6,-1
    1f50:	18c7883a 	add	r3,r3,r3
    1f54:	293ffa36 	bltu	r5,r4,1f40 <__umodsi3+0x18>
    1f58:	18000626 	beq	r3,zero,1f74 <__umodsi3+0x4c>
    1f5c:	1806d07a 	srli	r3,r3,1
    1f60:	11400136 	bltu	r2,r5,1f68 <__umodsi3+0x40>
    1f64:	1145c83a 	sub	r2,r2,r5
    1f68:	280ad07a 	srli	r5,r5,1
    1f6c:	183ffb1e 	bne	r3,zero,1f5c <__umodsi3+0x34>
    1f70:	f800283a 	ret
    1f74:	f800283a 	ret
    1f78:	00c00044 	movi	r3,1
    1f7c:	003ff706 	br	1f5c <__umodsi3+0x34>

00001f80 <malloc>:
    1f80:	00800074 	movhi	r2,1
    1f84:	108d2c04 	addi	r2,r2,13488
    1f88:	200b883a 	mov	r5,r4
    1f8c:	11000017 	ldw	r4,0(r2)
    1f90:	0001fa81 	jmpi	1fa8 <_malloc_r>

00001f94 <free>:
    1f94:	00800074 	movhi	r2,1
    1f98:	108d2c04 	addi	r2,r2,13488
    1f9c:	200b883a 	mov	r5,r4
    1fa0:	11000017 	ldw	r4,0(r2)
    1fa4:	0006df81 	jmpi	6df8 <_free_r>

00001fa8 <_malloc_r>:
    1fa8:	defff504 	addi	sp,sp,-44
    1fac:	dc800315 	stw	r18,12(sp)
    1fb0:	dfc00a15 	stw	ra,40(sp)
    1fb4:	df000915 	stw	fp,36(sp)
    1fb8:	ddc00815 	stw	r23,32(sp)
    1fbc:	dd800715 	stw	r22,28(sp)
    1fc0:	dd400615 	stw	r21,24(sp)
    1fc4:	dd000515 	stw	r20,20(sp)
    1fc8:	dcc00415 	stw	r19,16(sp)
    1fcc:	dc400215 	stw	r17,8(sp)
    1fd0:	dc000115 	stw	r16,4(sp)
    1fd4:	288002c4 	addi	r2,r5,11
    1fd8:	00c00584 	movi	r3,22
    1fdc:	2025883a 	mov	r18,r4
    1fe0:	18807f2e 	bgeu	r3,r2,21e0 <_malloc_r+0x238>
    1fe4:	047ffe04 	movi	r17,-8
    1fe8:	1462703a 	and	r17,r2,r17
    1fec:	8800a316 	blt	r17,zero,227c <_malloc_r+0x2d4>
    1ff0:	8940a236 	bltu	r17,r5,227c <_malloc_r+0x2d4>
    1ff4:	000ec900 	call	ec90 <__malloc_lock>
    1ff8:	00807dc4 	movi	r2,503
    1ffc:	1441e92e 	bgeu	r2,r17,27a4 <_malloc_r+0x7fc>
    2000:	8804d27a 	srli	r2,r17,9
    2004:	1000a126 	beq	r2,zero,228c <_malloc_r+0x2e4>
    2008:	00c00104 	movi	r3,4
    200c:	18811e36 	bltu	r3,r2,2488 <_malloc_r+0x4e0>
    2010:	8804d1ba 	srli	r2,r17,6
    2014:	12000e44 	addi	r8,r2,57
    2018:	11c00e04 	addi	r7,r2,56
    201c:	4209883a 	add	r4,r8,r8
    2020:	04c00074 	movhi	r19,1
    2024:	2109883a 	add	r4,r4,r4
    2028:	9cc67e04 	addi	r19,r19,6648
    202c:	2109883a 	add	r4,r4,r4
    2030:	9909883a 	add	r4,r19,r4
    2034:	24000117 	ldw	r16,4(r4)
    2038:	213ffe04 	addi	r4,r4,-8
    203c:	24009726 	beq	r4,r16,229c <_malloc_r+0x2f4>
    2040:	80800117 	ldw	r2,4(r16)
    2044:	01bfff04 	movi	r6,-4
    2048:	014003c4 	movi	r5,15
    204c:	1184703a 	and	r2,r2,r6
    2050:	1447c83a 	sub	r3,r2,r17
    2054:	28c00716 	blt	r5,r3,2074 <_malloc_r+0xcc>
    2058:	1800920e 	bge	r3,zero,22a4 <_malloc_r+0x2fc>
    205c:	84000317 	ldw	r16,12(r16)
    2060:	24008e26 	beq	r4,r16,229c <_malloc_r+0x2f4>
    2064:	80800117 	ldw	r2,4(r16)
    2068:	1184703a 	and	r2,r2,r6
    206c:	1447c83a 	sub	r3,r2,r17
    2070:	28fff90e 	bge	r5,r3,2058 <_malloc_r+0xb0>
    2074:	3809883a 	mov	r4,r7
    2078:	01800074 	movhi	r6,1
    207c:	9c000417 	ldw	r16,16(r19)
    2080:	31867e04 	addi	r6,r6,6648
    2084:	32000204 	addi	r8,r6,8
    2088:	82013426 	beq	r16,r8,255c <_malloc_r+0x5b4>
    208c:	80c00117 	ldw	r3,4(r16)
    2090:	00bfff04 	movi	r2,-4
    2094:	188e703a 	and	r7,r3,r2
    2098:	3c45c83a 	sub	r2,r7,r17
    209c:	00c003c4 	movi	r3,15
    20a0:	18811f16 	blt	r3,r2,2520 <_malloc_r+0x578>
    20a4:	32000515 	stw	r8,20(r6)
    20a8:	32000415 	stw	r8,16(r6)
    20ac:	10007f0e 	bge	r2,zero,22ac <_malloc_r+0x304>
    20b0:	00807fc4 	movi	r2,511
    20b4:	11c0fd36 	bltu	r2,r7,24ac <_malloc_r+0x504>
    20b8:	3806d0fa 	srli	r3,r7,3
    20bc:	01c00044 	movi	r7,1
    20c0:	30800117 	ldw	r2,4(r6)
    20c4:	19400044 	addi	r5,r3,1
    20c8:	294b883a 	add	r5,r5,r5
    20cc:	1807d0ba 	srai	r3,r3,2
    20d0:	294b883a 	add	r5,r5,r5
    20d4:	294b883a 	add	r5,r5,r5
    20d8:	298b883a 	add	r5,r5,r6
    20dc:	38c6983a 	sll	r3,r7,r3
    20e0:	29c00017 	ldw	r7,0(r5)
    20e4:	2a7ffe04 	addi	r9,r5,-8
    20e8:	1886b03a 	or	r3,r3,r2
    20ec:	82400315 	stw	r9,12(r16)
    20f0:	81c00215 	stw	r7,8(r16)
    20f4:	30c00115 	stw	r3,4(r6)
    20f8:	2c000015 	stw	r16,0(r5)
    20fc:	3c000315 	stw	r16,12(r7)
    2100:	2005d0ba 	srai	r2,r4,2
    2104:	01400044 	movi	r5,1
    2108:	288a983a 	sll	r5,r5,r2
    210c:	19406f36 	bltu	r3,r5,22cc <_malloc_r+0x324>
    2110:	28c4703a 	and	r2,r5,r3
    2114:	10000a1e 	bne	r2,zero,2140 <_malloc_r+0x198>
    2118:	00bfff04 	movi	r2,-4
    211c:	294b883a 	add	r5,r5,r5
    2120:	2088703a 	and	r4,r4,r2
    2124:	28c4703a 	and	r2,r5,r3
    2128:	21000104 	addi	r4,r4,4
    212c:	1000041e 	bne	r2,zero,2140 <_malloc_r+0x198>
    2130:	294b883a 	add	r5,r5,r5
    2134:	28c4703a 	and	r2,r5,r3
    2138:	21000104 	addi	r4,r4,4
    213c:	103ffc26 	beq	r2,zero,2130 <_malloc_r+0x188>
    2140:	02bfff04 	movi	r10,-4
    2144:	024003c4 	movi	r9,15
    2148:	21800044 	addi	r6,r4,1
    214c:	318d883a 	add	r6,r6,r6
    2150:	318d883a 	add	r6,r6,r6
    2154:	318d883a 	add	r6,r6,r6
    2158:	998d883a 	add	r6,r19,r6
    215c:	333ffe04 	addi	r12,r6,-8
    2160:	2017883a 	mov	r11,r4
    2164:	31800104 	addi	r6,r6,4
    2168:	34000017 	ldw	r16,0(r6)
    216c:	31fffd04 	addi	r7,r6,-12
    2170:	81c0041e 	bne	r16,r7,2184 <_malloc_r+0x1dc>
    2174:	0000fb06 	br	2564 <_malloc_r+0x5bc>
    2178:	1801030e 	bge	r3,zero,2588 <_malloc_r+0x5e0>
    217c:	84000317 	ldw	r16,12(r16)
    2180:	81c0f826 	beq	r16,r7,2564 <_malloc_r+0x5bc>
    2184:	80800117 	ldw	r2,4(r16)
    2188:	1284703a 	and	r2,r2,r10
    218c:	1447c83a 	sub	r3,r2,r17
    2190:	48fff90e 	bge	r9,r3,2178 <_malloc_r+0x1d0>
    2194:	80800317 	ldw	r2,12(r16)
    2198:	81000217 	ldw	r4,8(r16)
    219c:	89400054 	ori	r5,r17,1
    21a0:	81400115 	stw	r5,4(r16)
    21a4:	20800315 	stw	r2,12(r4)
    21a8:	11000215 	stw	r4,8(r2)
    21ac:	8463883a 	add	r17,r16,r17
    21b0:	9c400515 	stw	r17,20(r19)
    21b4:	9c400415 	stw	r17,16(r19)
    21b8:	18800054 	ori	r2,r3,1
    21bc:	88800115 	stw	r2,4(r17)
    21c0:	8a000315 	stw	r8,12(r17)
    21c4:	8a000215 	stw	r8,8(r17)
    21c8:	88e3883a 	add	r17,r17,r3
    21cc:	88c00015 	stw	r3,0(r17)
    21d0:	9009883a 	mov	r4,r18
    21d4:	000ecb40 	call	ecb4 <__malloc_unlock>
    21d8:	80800204 	addi	r2,r16,8
    21dc:	00001b06 	br	224c <_malloc_r+0x2a4>
    21e0:	04400404 	movi	r17,16
    21e4:	89402536 	bltu	r17,r5,227c <_malloc_r+0x2d4>
    21e8:	000ec900 	call	ec90 <__malloc_lock>
    21ec:	00800184 	movi	r2,6
    21f0:	01000084 	movi	r4,2
    21f4:	04c00074 	movhi	r19,1
    21f8:	1085883a 	add	r2,r2,r2
    21fc:	9cc67e04 	addi	r19,r19,6648
    2200:	1085883a 	add	r2,r2,r2
    2204:	9885883a 	add	r2,r19,r2
    2208:	14000117 	ldw	r16,4(r2)
    220c:	10fffe04 	addi	r3,r2,-8
    2210:	80c0d926 	beq	r16,r3,2578 <_malloc_r+0x5d0>
    2214:	80c00117 	ldw	r3,4(r16)
    2218:	81000317 	ldw	r4,12(r16)
    221c:	00bfff04 	movi	r2,-4
    2220:	1884703a 	and	r2,r3,r2
    2224:	81400217 	ldw	r5,8(r16)
    2228:	8085883a 	add	r2,r16,r2
    222c:	10c00117 	ldw	r3,4(r2)
    2230:	29000315 	stw	r4,12(r5)
    2234:	21400215 	stw	r5,8(r4)
    2238:	18c00054 	ori	r3,r3,1
    223c:	10c00115 	stw	r3,4(r2)
    2240:	9009883a 	mov	r4,r18
    2244:	000ecb40 	call	ecb4 <__malloc_unlock>
    2248:	80800204 	addi	r2,r16,8
    224c:	dfc00a17 	ldw	ra,40(sp)
    2250:	df000917 	ldw	fp,36(sp)
    2254:	ddc00817 	ldw	r23,32(sp)
    2258:	dd800717 	ldw	r22,28(sp)
    225c:	dd400617 	ldw	r21,24(sp)
    2260:	dd000517 	ldw	r20,20(sp)
    2264:	dcc00417 	ldw	r19,16(sp)
    2268:	dc800317 	ldw	r18,12(sp)
    226c:	dc400217 	ldw	r17,8(sp)
    2270:	dc000117 	ldw	r16,4(sp)
    2274:	dec00b04 	addi	sp,sp,44
    2278:	f800283a 	ret
    227c:	00800304 	movi	r2,12
    2280:	90800015 	stw	r2,0(r18)
    2284:	0005883a 	mov	r2,zero
    2288:	003ff006 	br	224c <_malloc_r+0x2a4>
    228c:	01002004 	movi	r4,128
    2290:	02001004 	movi	r8,64
    2294:	01c00fc4 	movi	r7,63
    2298:	003f6106 	br	2020 <_malloc_r+0x78>
    229c:	4009883a 	mov	r4,r8
    22a0:	003f7506 	br	2078 <_malloc_r+0xd0>
    22a4:	81000317 	ldw	r4,12(r16)
    22a8:	003fde06 	br	2224 <_malloc_r+0x27c>
    22ac:	81c5883a 	add	r2,r16,r7
    22b0:	11400117 	ldw	r5,4(r2)
    22b4:	9009883a 	mov	r4,r18
    22b8:	29400054 	ori	r5,r5,1
    22bc:	11400115 	stw	r5,4(r2)
    22c0:	000ecb40 	call	ecb4 <__malloc_unlock>
    22c4:	80800204 	addi	r2,r16,8
    22c8:	003fe006 	br	224c <_malloc_r+0x2a4>
    22cc:	9c000217 	ldw	r16,8(r19)
    22d0:	00bfff04 	movi	r2,-4
    22d4:	85800117 	ldw	r22,4(r16)
    22d8:	b0ac703a 	and	r22,r22,r2
    22dc:	b4400336 	bltu	r22,r17,22ec <_malloc_r+0x344>
    22e0:	b445c83a 	sub	r2,r22,r17
    22e4:	00c003c4 	movi	r3,15
    22e8:	18805d16 	blt	r3,r2,2460 <_malloc_r+0x4b8>
    22ec:	05c00074 	movhi	r23,1
    22f0:	00800074 	movhi	r2,1
    22f4:	10944c04 	addi	r2,r2,20784
    22f8:	bdcd2904 	addi	r23,r23,13476
    22fc:	15400017 	ldw	r21,0(r2)
    2300:	b8c00017 	ldw	r3,0(r23)
    2304:	00bfffc4 	movi	r2,-1
    2308:	858d883a 	add	r6,r16,r22
    230c:	8d6b883a 	add	r21,r17,r21
    2310:	1880ea26 	beq	r3,r2,26bc <_malloc_r+0x714>
    2314:	ad4403c4 	addi	r21,r21,4111
    2318:	00bc0004 	movi	r2,-4096
    231c:	a8aa703a 	and	r21,r21,r2
    2320:	a80b883a 	mov	r5,r21
    2324:	9009883a 	mov	r4,r18
    2328:	d9800015 	stw	r6,0(sp)
    232c:	00028f40 	call	28f4 <_sbrk_r>
    2330:	1029883a 	mov	r20,r2
    2334:	00bfffc4 	movi	r2,-1
    2338:	d9800017 	ldw	r6,0(sp)
    233c:	a080e826 	beq	r20,r2,26e0 <_malloc_r+0x738>
    2340:	a180a636 	bltu	r20,r6,25dc <_malloc_r+0x634>
    2344:	07000074 	movhi	fp,1
    2348:	e7145a04 	addi	fp,fp,20840
    234c:	e0800017 	ldw	r2,0(fp)
    2350:	a887883a 	add	r3,r21,r2
    2354:	e0c00015 	stw	r3,0(fp)
    2358:	3500e626 	beq	r6,r20,26f4 <_malloc_r+0x74c>
    235c:	b9000017 	ldw	r4,0(r23)
    2360:	00bfffc4 	movi	r2,-1
    2364:	2080ee26 	beq	r4,r2,2720 <_malloc_r+0x778>
    2368:	a185c83a 	sub	r2,r20,r6
    236c:	10c5883a 	add	r2,r2,r3
    2370:	e0800015 	stw	r2,0(fp)
    2374:	a0c001cc 	andi	r3,r20,7
    2378:	1800bc26 	beq	r3,zero,266c <_malloc_r+0x6c4>
    237c:	a0e9c83a 	sub	r20,r20,r3
    2380:	00840204 	movi	r2,4104
    2384:	a5000204 	addi	r20,r20,8
    2388:	10c7c83a 	sub	r3,r2,r3
    238c:	a545883a 	add	r2,r20,r21
    2390:	1083ffcc 	andi	r2,r2,4095
    2394:	18abc83a 	sub	r21,r3,r2
    2398:	a80b883a 	mov	r5,r21
    239c:	9009883a 	mov	r4,r18
    23a0:	00028f40 	call	28f4 <_sbrk_r>
    23a4:	00ffffc4 	movi	r3,-1
    23a8:	10c0e126 	beq	r2,r3,2730 <_malloc_r+0x788>
    23ac:	1505c83a 	sub	r2,r2,r20
    23b0:	1545883a 	add	r2,r2,r21
    23b4:	10800054 	ori	r2,r2,1
    23b8:	e0c00017 	ldw	r3,0(fp)
    23bc:	9d000215 	stw	r20,8(r19)
    23c0:	a0800115 	stw	r2,4(r20)
    23c4:	a8c7883a 	add	r3,r21,r3
    23c8:	e0c00015 	stw	r3,0(fp)
    23cc:	84c00e26 	beq	r16,r19,2408 <_malloc_r+0x460>
    23d0:	018003c4 	movi	r6,15
    23d4:	3580a72e 	bgeu	r6,r22,2674 <_malloc_r+0x6cc>
    23d8:	81400117 	ldw	r5,4(r16)
    23dc:	013ffe04 	movi	r4,-8
    23e0:	b0bffd04 	addi	r2,r22,-12
    23e4:	1104703a 	and	r2,r2,r4
    23e8:	2900004c 	andi	r4,r5,1
    23ec:	2088b03a 	or	r4,r4,r2
    23f0:	81000115 	stw	r4,4(r16)
    23f4:	01400144 	movi	r5,5
    23f8:	8089883a 	add	r4,r16,r2
    23fc:	21400115 	stw	r5,4(r4)
    2400:	21400215 	stw	r5,8(r4)
    2404:	3080cd36 	bltu	r6,r2,273c <_malloc_r+0x794>
    2408:	00800074 	movhi	r2,1
    240c:	10944b04 	addi	r2,r2,20780
    2410:	11000017 	ldw	r4,0(r2)
    2414:	20c0012e 	bgeu	r4,r3,241c <_malloc_r+0x474>
    2418:	10c00015 	stw	r3,0(r2)
    241c:	00800074 	movhi	r2,1
    2420:	10944a04 	addi	r2,r2,20776
    2424:	11000017 	ldw	r4,0(r2)
    2428:	9c000217 	ldw	r16,8(r19)
    242c:	20c0012e 	bgeu	r4,r3,2434 <_malloc_r+0x48c>
    2430:	10c00015 	stw	r3,0(r2)
    2434:	80c00117 	ldw	r3,4(r16)
    2438:	00bfff04 	movi	r2,-4
    243c:	1886703a 	and	r3,r3,r2
    2440:	1c45c83a 	sub	r2,r3,r17
    2444:	1c400236 	bltu	r3,r17,2450 <_malloc_r+0x4a8>
    2448:	00c003c4 	movi	r3,15
    244c:	18800416 	blt	r3,r2,2460 <_malloc_r+0x4b8>
    2450:	9009883a 	mov	r4,r18
    2454:	000ecb40 	call	ecb4 <__malloc_unlock>
    2458:	0005883a 	mov	r2,zero
    245c:	003f7b06 	br	224c <_malloc_r+0x2a4>
    2460:	88c00054 	ori	r3,r17,1
    2464:	80c00115 	stw	r3,4(r16)
    2468:	8463883a 	add	r17,r16,r17
    246c:	10800054 	ori	r2,r2,1
    2470:	9c400215 	stw	r17,8(r19)
    2474:	88800115 	stw	r2,4(r17)
    2478:	9009883a 	mov	r4,r18
    247c:	000ecb40 	call	ecb4 <__malloc_unlock>
    2480:	80800204 	addi	r2,r16,8
    2484:	003f7106 	br	224c <_malloc_r+0x2a4>
    2488:	00c00504 	movi	r3,20
    248c:	18804a2e 	bgeu	r3,r2,25b8 <_malloc_r+0x610>
    2490:	00c01504 	movi	r3,84
    2494:	18806e36 	bltu	r3,r2,2650 <_malloc_r+0x6a8>
    2498:	8804d33a 	srli	r2,r17,12
    249c:	12001bc4 	addi	r8,r2,111
    24a0:	11c01b84 	addi	r7,r2,110
    24a4:	4209883a 	add	r4,r8,r8
    24a8:	003edd06 	br	2020 <_malloc_r+0x78>
    24ac:	3804d27a 	srli	r2,r7,9
    24b0:	00c00104 	movi	r3,4
    24b4:	1880442e 	bgeu	r3,r2,25c8 <_malloc_r+0x620>
    24b8:	00c00504 	movi	r3,20
    24bc:	18808136 	bltu	r3,r2,26c4 <_malloc_r+0x71c>
    24c0:	11401704 	addi	r5,r2,92
    24c4:	10c016c4 	addi	r3,r2,91
    24c8:	294b883a 	add	r5,r5,r5
    24cc:	294b883a 	add	r5,r5,r5
    24d0:	294b883a 	add	r5,r5,r5
    24d4:	994b883a 	add	r5,r19,r5
    24d8:	28800017 	ldw	r2,0(r5)
    24dc:	01800074 	movhi	r6,1
    24e0:	297ffe04 	addi	r5,r5,-8
    24e4:	31867e04 	addi	r6,r6,6648
    24e8:	28806526 	beq	r5,r2,2680 <_malloc_r+0x6d8>
    24ec:	01bfff04 	movi	r6,-4
    24f0:	10c00117 	ldw	r3,4(r2)
    24f4:	1986703a 	and	r3,r3,r6
    24f8:	38c0022e 	bgeu	r7,r3,2504 <_malloc_r+0x55c>
    24fc:	10800217 	ldw	r2,8(r2)
    2500:	28bffb1e 	bne	r5,r2,24f0 <_malloc_r+0x548>
    2504:	11400317 	ldw	r5,12(r2)
    2508:	98c00117 	ldw	r3,4(r19)
    250c:	81400315 	stw	r5,12(r16)
    2510:	80800215 	stw	r2,8(r16)
    2514:	2c000215 	stw	r16,8(r5)
    2518:	14000315 	stw	r16,12(r2)
    251c:	003ef806 	br	2100 <_malloc_r+0x158>
    2520:	88c00054 	ori	r3,r17,1
    2524:	80c00115 	stw	r3,4(r16)
    2528:	8463883a 	add	r17,r16,r17
    252c:	34400515 	stw	r17,20(r6)
    2530:	34400415 	stw	r17,16(r6)
    2534:	10c00054 	ori	r3,r2,1
    2538:	8a000315 	stw	r8,12(r17)
    253c:	8a000215 	stw	r8,8(r17)
    2540:	88c00115 	stw	r3,4(r17)
    2544:	88a3883a 	add	r17,r17,r2
    2548:	88800015 	stw	r2,0(r17)
    254c:	9009883a 	mov	r4,r18
    2550:	000ecb40 	call	ecb4 <__malloc_unlock>
    2554:	80800204 	addi	r2,r16,8
    2558:	003f3c06 	br	224c <_malloc_r+0x2a4>
    255c:	30c00117 	ldw	r3,4(r6)
    2560:	003ee706 	br	2100 <_malloc_r+0x158>
    2564:	5ac00044 	addi	r11,r11,1
    2568:	588000cc 	andi	r2,r11,3
    256c:	31800204 	addi	r6,r6,8
    2570:	103efd1e 	bne	r2,zero,2168 <_malloc_r+0x1c0>
    2574:	00002406 	br	2608 <_malloc_r+0x660>
    2578:	14000317 	ldw	r16,12(r2)
    257c:	143f251e 	bne	r2,r16,2214 <_malloc_r+0x26c>
    2580:	21000084 	addi	r4,r4,2
    2584:	003ebc06 	br	2078 <_malloc_r+0xd0>
    2588:	8085883a 	add	r2,r16,r2
    258c:	10c00117 	ldw	r3,4(r2)
    2590:	81000317 	ldw	r4,12(r16)
    2594:	81400217 	ldw	r5,8(r16)
    2598:	18c00054 	ori	r3,r3,1
    259c:	10c00115 	stw	r3,4(r2)
    25a0:	29000315 	stw	r4,12(r5)
    25a4:	21400215 	stw	r5,8(r4)
    25a8:	9009883a 	mov	r4,r18
    25ac:	000ecb40 	call	ecb4 <__malloc_unlock>
    25b0:	80800204 	addi	r2,r16,8
    25b4:	003f2506 	br	224c <_malloc_r+0x2a4>
    25b8:	12001704 	addi	r8,r2,92
    25bc:	11c016c4 	addi	r7,r2,91
    25c0:	4209883a 	add	r4,r8,r8
    25c4:	003e9606 	br	2020 <_malloc_r+0x78>
    25c8:	3804d1ba 	srli	r2,r7,6
    25cc:	11400e44 	addi	r5,r2,57
    25d0:	10c00e04 	addi	r3,r2,56
    25d4:	294b883a 	add	r5,r5,r5
    25d8:	003fbc06 	br	24cc <_malloc_r+0x524>
    25dc:	84ff5926 	beq	r16,r19,2344 <_malloc_r+0x39c>
    25e0:	00800074 	movhi	r2,1
    25e4:	10867e04 	addi	r2,r2,6648
    25e8:	14000217 	ldw	r16,8(r2)
    25ec:	00bfff04 	movi	r2,-4
    25f0:	80c00117 	ldw	r3,4(r16)
    25f4:	1886703a 	and	r3,r3,r2
    25f8:	003f9106 	br	2440 <_malloc_r+0x498>
    25fc:	60800217 	ldw	r2,8(r12)
    2600:	213fffc4 	addi	r4,r4,-1
    2604:	1300651e 	bne	r2,r12,279c <_malloc_r+0x7f4>
    2608:	208000cc 	andi	r2,r4,3
    260c:	633ffe04 	addi	r12,r12,-8
    2610:	103ffa1e 	bne	r2,zero,25fc <_malloc_r+0x654>
    2614:	98800117 	ldw	r2,4(r19)
    2618:	0146303a 	nor	r3,zero,r5
    261c:	1884703a 	and	r2,r3,r2
    2620:	98800115 	stw	r2,4(r19)
    2624:	294b883a 	add	r5,r5,r5
    2628:	117f2836 	bltu	r2,r5,22cc <_malloc_r+0x324>
    262c:	283f2726 	beq	r5,zero,22cc <_malloc_r+0x324>
    2630:	2886703a 	and	r3,r5,r2
    2634:	5809883a 	mov	r4,r11
    2638:	183ec31e 	bne	r3,zero,2148 <_malloc_r+0x1a0>
    263c:	294b883a 	add	r5,r5,r5
    2640:	2886703a 	and	r3,r5,r2
    2644:	21000104 	addi	r4,r4,4
    2648:	183ffc26 	beq	r3,zero,263c <_malloc_r+0x694>
    264c:	003ebe06 	br	2148 <_malloc_r+0x1a0>
    2650:	00c05504 	movi	r3,340
    2654:	18801236 	bltu	r3,r2,26a0 <_malloc_r+0x6f8>
    2658:	8804d3fa 	srli	r2,r17,15
    265c:	12001e04 	addi	r8,r2,120
    2660:	11c01dc4 	addi	r7,r2,119
    2664:	4209883a 	add	r4,r8,r8
    2668:	003e6d06 	br	2020 <_malloc_r+0x78>
    266c:	00c40004 	movi	r3,4096
    2670:	003f4606 	br	238c <_malloc_r+0x3e4>
    2674:	00800044 	movi	r2,1
    2678:	a0800115 	stw	r2,4(r20)
    267c:	003f7406 	br	2450 <_malloc_r+0x4a8>
    2680:	1805d0ba 	srai	r2,r3,2
    2684:	01c00044 	movi	r7,1
    2688:	30c00117 	ldw	r3,4(r6)
    268c:	388e983a 	sll	r7,r7,r2
    2690:	2805883a 	mov	r2,r5
    2694:	38c6b03a 	or	r3,r7,r3
    2698:	30c00115 	stw	r3,4(r6)
    269c:	003f9b06 	br	250c <_malloc_r+0x564>
    26a0:	00c15504 	movi	r3,1364
    26a4:	18801a36 	bltu	r3,r2,2710 <_malloc_r+0x768>
    26a8:	8804d4ba 	srli	r2,r17,18
    26ac:	12001f44 	addi	r8,r2,125
    26b0:	11c01f04 	addi	r7,r2,124
    26b4:	4209883a 	add	r4,r8,r8
    26b8:	003e5906 	br	2020 <_malloc_r+0x78>
    26bc:	ad400404 	addi	r21,r21,16
    26c0:	003f1706 	br	2320 <_malloc_r+0x378>
    26c4:	00c01504 	movi	r3,84
    26c8:	18802336 	bltu	r3,r2,2758 <_malloc_r+0x7b0>
    26cc:	3804d33a 	srli	r2,r7,12
    26d0:	11401bc4 	addi	r5,r2,111
    26d4:	10c01b84 	addi	r3,r2,110
    26d8:	294b883a 	add	r5,r5,r5
    26dc:	003f7b06 	br	24cc <_malloc_r+0x524>
    26e0:	9c000217 	ldw	r16,8(r19)
    26e4:	00bfff04 	movi	r2,-4
    26e8:	80c00117 	ldw	r3,4(r16)
    26ec:	1886703a 	and	r3,r3,r2
    26f0:	003f5306 	br	2440 <_malloc_r+0x498>
    26f4:	3083ffcc 	andi	r2,r6,4095
    26f8:	103f181e 	bne	r2,zero,235c <_malloc_r+0x3b4>
    26fc:	99000217 	ldw	r4,8(r19)
    2700:	b545883a 	add	r2,r22,r21
    2704:	10800054 	ori	r2,r2,1
    2708:	20800115 	stw	r2,4(r4)
    270c:	003f3e06 	br	2408 <_malloc_r+0x460>
    2710:	01003f84 	movi	r4,254
    2714:	02001fc4 	movi	r8,127
    2718:	01c01f84 	movi	r7,126
    271c:	003e4006 	br	2020 <_malloc_r+0x78>
    2720:	00800074 	movhi	r2,1
    2724:	108d2904 	addi	r2,r2,13476
    2728:	15000015 	stw	r20,0(r2)
    272c:	003f1106 	br	2374 <_malloc_r+0x3cc>
    2730:	00800044 	movi	r2,1
    2734:	002b883a 	mov	r21,zero
    2738:	003f1f06 	br	23b8 <_malloc_r+0x410>
    273c:	81400204 	addi	r5,r16,8
    2740:	9009883a 	mov	r4,r18
    2744:	0006df80 	call	6df8 <_free_r>
    2748:	00800074 	movhi	r2,1
    274c:	10945a04 	addi	r2,r2,20840
    2750:	10c00017 	ldw	r3,0(r2)
    2754:	003f2c06 	br	2408 <_malloc_r+0x460>
    2758:	00c05504 	movi	r3,340
    275c:	18800536 	bltu	r3,r2,2774 <_malloc_r+0x7cc>
    2760:	3804d3fa 	srli	r2,r7,15
    2764:	11401e04 	addi	r5,r2,120
    2768:	10c01dc4 	addi	r3,r2,119
    276c:	294b883a 	add	r5,r5,r5
    2770:	003f5606 	br	24cc <_malloc_r+0x524>
    2774:	00c15504 	movi	r3,1364
    2778:	18800536 	bltu	r3,r2,2790 <_malloc_r+0x7e8>
    277c:	3804d4ba 	srli	r2,r7,18
    2780:	11401f44 	addi	r5,r2,125
    2784:	10c01f04 	addi	r3,r2,124
    2788:	294b883a 	add	r5,r5,r5
    278c:	003f4f06 	br	24cc <_malloc_r+0x524>
    2790:	01403f84 	movi	r5,254
    2794:	00c01f84 	movi	r3,126
    2798:	003f4c06 	br	24cc <_malloc_r+0x524>
    279c:	98800117 	ldw	r2,4(r19)
    27a0:	003fa006 	br	2624 <_malloc_r+0x67c>
    27a4:	8808d0fa 	srli	r4,r17,3
    27a8:	20800044 	addi	r2,r4,1
    27ac:	1085883a 	add	r2,r2,r2
    27b0:	003e9006 	br	21f4 <_malloc_r+0x24c>

000027b4 <_printf_r>:
    27b4:	defffd04 	addi	sp,sp,-12
    27b8:	2805883a 	mov	r2,r5
    27bc:	dfc00015 	stw	ra,0(sp)
    27c0:	d9800115 	stw	r6,4(sp)
    27c4:	d9c00215 	stw	r7,8(sp)
    27c8:	21400217 	ldw	r5,8(r4)
    27cc:	d9c00104 	addi	r7,sp,4
    27d0:	100d883a 	mov	r6,r2
    27d4:	00029e00 	call	29e0 <___vfprintf_internal_r>
    27d8:	dfc00017 	ldw	ra,0(sp)
    27dc:	dec00304 	addi	sp,sp,12
    27e0:	f800283a 	ret

000027e4 <printf>:
    27e4:	defffc04 	addi	sp,sp,-16
    27e8:	dfc00015 	stw	ra,0(sp)
    27ec:	d9400115 	stw	r5,4(sp)
    27f0:	d9800215 	stw	r6,8(sp)
    27f4:	d9c00315 	stw	r7,12(sp)
    27f8:	00800074 	movhi	r2,1
    27fc:	108d2c04 	addi	r2,r2,13488
    2800:	10800017 	ldw	r2,0(r2)
    2804:	200b883a 	mov	r5,r4
    2808:	d9800104 	addi	r6,sp,4
    280c:	11000217 	ldw	r4,8(r2)
    2810:	0004bd80 	call	4bd8 <__vfprintf_internal>
    2814:	dfc00017 	ldw	ra,0(sp)
    2818:	dec00404 	addi	sp,sp,16
    281c:	f800283a 	ret

00002820 <_puts_r>:
    2820:	defff604 	addi	sp,sp,-40
    2824:	dc000715 	stw	r16,28(sp)
    2828:	2021883a 	mov	r16,r4
    282c:	2809883a 	mov	r4,r5
    2830:	dc400815 	stw	r17,32(sp)
    2834:	dfc00915 	stw	ra,36(sp)
    2838:	2823883a 	mov	r17,r5
    283c:	00029480 	call	2948 <strlen>
    2840:	10c00044 	addi	r3,r2,1
    2844:	d8800115 	stw	r2,4(sp)
    2848:	00800074 	movhi	r2,1
    284c:	10858004 	addi	r2,r2,5632
    2850:	d8800215 	stw	r2,8(sp)
    2854:	00800044 	movi	r2,1
    2858:	d8800315 	stw	r2,12(sp)
    285c:	00800084 	movi	r2,2
    2860:	dc400015 	stw	r17,0(sp)
    2864:	d8c00615 	stw	r3,24(sp)
    2868:	dec00415 	stw	sp,16(sp)
    286c:	d8800515 	stw	r2,20(sp)
    2870:	80000226 	beq	r16,zero,287c <_puts_r+0x5c>
    2874:	80800e17 	ldw	r2,56(r16)
    2878:	10001426 	beq	r2,zero,28cc <_puts_r+0xac>
    287c:	81400217 	ldw	r5,8(r16)
    2880:	2880030b 	ldhu	r2,12(r5)
    2884:	10c8000c 	andi	r3,r2,8192
    2888:	1800061e 	bne	r3,zero,28a4 <_puts_r+0x84>
    288c:	29001917 	ldw	r4,100(r5)
    2890:	00f7ffc4 	movi	r3,-8193
    2894:	10880014 	ori	r2,r2,8192
    2898:	20c6703a 	and	r3,r4,r3
    289c:	2880030d 	sth	r2,12(r5)
    28a0:	28c01915 	stw	r3,100(r5)
    28a4:	d9800404 	addi	r6,sp,16
    28a8:	8009883a 	mov	r4,r16
    28ac:	00071080 	call	7108 <__sfvwrite_r>
    28b0:	1000091e 	bne	r2,zero,28d8 <_puts_r+0xb8>
    28b4:	00800284 	movi	r2,10
    28b8:	dfc00917 	ldw	ra,36(sp)
    28bc:	dc400817 	ldw	r17,32(sp)
    28c0:	dc000717 	ldw	r16,28(sp)
    28c4:	dec00a04 	addi	sp,sp,40
    28c8:	f800283a 	ret
    28cc:	8009883a 	mov	r4,r16
    28d0:	0006c840 	call	6c84 <__sinit>
    28d4:	003fe906 	br	287c <_puts_r+0x5c>
    28d8:	00bfffc4 	movi	r2,-1
    28dc:	003ff606 	br	28b8 <_puts_r+0x98>

000028e0 <puts>:
    28e0:	00800074 	movhi	r2,1
    28e4:	108d2c04 	addi	r2,r2,13488
    28e8:	200b883a 	mov	r5,r4
    28ec:	11000017 	ldw	r4,0(r2)
    28f0:	00028201 	jmpi	2820 <_puts_r>

000028f4 <_sbrk_r>:
    28f4:	defffd04 	addi	sp,sp,-12
    28f8:	dc000015 	stw	r16,0(sp)
    28fc:	04000074 	movhi	r16,1
    2900:	dc400115 	stw	r17,4(sp)
    2904:	84144d04 	addi	r16,r16,20788
    2908:	2023883a 	mov	r17,r4
    290c:	2809883a 	mov	r4,r5
    2910:	dfc00215 	stw	ra,8(sp)
    2914:	80000015 	stw	zero,0(r16)
    2918:	000ee740 	call	ee74 <sbrk>
    291c:	00ffffc4 	movi	r3,-1
    2920:	10c00526 	beq	r2,r3,2938 <_sbrk_r+0x44>
    2924:	dfc00217 	ldw	ra,8(sp)
    2928:	dc400117 	ldw	r17,4(sp)
    292c:	dc000017 	ldw	r16,0(sp)
    2930:	dec00304 	addi	sp,sp,12
    2934:	f800283a 	ret
    2938:	80c00017 	ldw	r3,0(r16)
    293c:	183ff926 	beq	r3,zero,2924 <_sbrk_r+0x30>
    2940:	88c00015 	stw	r3,0(r17)
    2944:	003ff706 	br	2924 <_sbrk_r+0x30>

00002948 <strlen>:
    2948:	208000cc 	andi	r2,r4,3
    294c:	10002026 	beq	r2,zero,29d0 <strlen+0x88>
    2950:	20800007 	ldb	r2,0(r4)
    2954:	10002026 	beq	r2,zero,29d8 <strlen+0x90>
    2958:	2005883a 	mov	r2,r4
    295c:	00000206 	br	2968 <strlen+0x20>
    2960:	10c00007 	ldb	r3,0(r2)
    2964:	18001826 	beq	r3,zero,29c8 <strlen+0x80>
    2968:	10800044 	addi	r2,r2,1
    296c:	10c000cc 	andi	r3,r2,3
    2970:	183ffb1e 	bne	r3,zero,2960 <strlen+0x18>
    2974:	10c00017 	ldw	r3,0(r2)
    2978:	01ffbff4 	movhi	r7,65279
    297c:	39ffbfc4 	addi	r7,r7,-257
    2980:	00ca303a 	nor	r5,zero,r3
    2984:	01a02074 	movhi	r6,32897
    2988:	19c7883a 	add	r3,r3,r7
    298c:	31a02004 	addi	r6,r6,-32640
    2990:	1946703a 	and	r3,r3,r5
    2994:	1986703a 	and	r3,r3,r6
    2998:	1800091e 	bne	r3,zero,29c0 <strlen+0x78>
    299c:	10800104 	addi	r2,r2,4
    29a0:	10c00017 	ldw	r3,0(r2)
    29a4:	19cb883a 	add	r5,r3,r7
    29a8:	00c6303a 	nor	r3,zero,r3
    29ac:	28c6703a 	and	r3,r5,r3
    29b0:	1986703a 	and	r3,r3,r6
    29b4:	183ff926 	beq	r3,zero,299c <strlen+0x54>
    29b8:	00000106 	br	29c0 <strlen+0x78>
    29bc:	10800044 	addi	r2,r2,1
    29c0:	10c00007 	ldb	r3,0(r2)
    29c4:	183ffd1e 	bne	r3,zero,29bc <strlen+0x74>
    29c8:	1105c83a 	sub	r2,r2,r4
    29cc:	f800283a 	ret
    29d0:	2005883a 	mov	r2,r4
    29d4:	003fe706 	br	2974 <strlen+0x2c>
    29d8:	0005883a 	mov	r2,zero
    29dc:	f800283a 	ret

000029e0 <___vfprintf_internal_r>:
    29e0:	deffb804 	addi	sp,sp,-288
    29e4:	dfc04715 	stw	ra,284(sp)
    29e8:	ddc04515 	stw	r23,276(sp)
    29ec:	dd404315 	stw	r21,268(sp)
    29f0:	d9002c15 	stw	r4,176(sp)
    29f4:	282f883a 	mov	r23,r5
    29f8:	302b883a 	mov	r21,r6
    29fc:	d9c02d15 	stw	r7,180(sp)
    2a00:	df004615 	stw	fp,280(sp)
    2a04:	dd804415 	stw	r22,272(sp)
    2a08:	dd004215 	stw	r20,264(sp)
    2a0c:	dcc04115 	stw	r19,260(sp)
    2a10:	dc804015 	stw	r18,256(sp)
    2a14:	dc403f15 	stw	r17,252(sp)
    2a18:	dc003e15 	stw	r16,248(sp)
    2a1c:	00077f80 	call	77f8 <_localeconv_r>
    2a20:	10800017 	ldw	r2,0(r2)
    2a24:	1009883a 	mov	r4,r2
    2a28:	d8803415 	stw	r2,208(sp)
    2a2c:	00029480 	call	2948 <strlen>
    2a30:	d8803715 	stw	r2,220(sp)
    2a34:	d8802c17 	ldw	r2,176(sp)
    2a38:	10000226 	beq	r2,zero,2a44 <___vfprintf_internal_r+0x64>
    2a3c:	10800e17 	ldw	r2,56(r2)
    2a40:	1000f926 	beq	r2,zero,2e28 <___vfprintf_internal_r+0x448>
    2a44:	b880030b 	ldhu	r2,12(r23)
    2a48:	10c8000c 	andi	r3,r2,8192
    2a4c:	1800061e 	bne	r3,zero,2a68 <___vfprintf_internal_r+0x88>
    2a50:	b9001917 	ldw	r4,100(r23)
    2a54:	00f7ffc4 	movi	r3,-8193
    2a58:	10880014 	ori	r2,r2,8192
    2a5c:	20c6703a 	and	r3,r4,r3
    2a60:	b880030d 	sth	r2,12(r23)
    2a64:	b8c01915 	stw	r3,100(r23)
    2a68:	10c0020c 	andi	r3,r2,8
    2a6c:	1800c126 	beq	r3,zero,2d74 <___vfprintf_internal_r+0x394>
    2a70:	b8c00417 	ldw	r3,16(r23)
    2a74:	1800bf26 	beq	r3,zero,2d74 <___vfprintf_internal_r+0x394>
    2a78:	1080068c 	andi	r2,r2,26
    2a7c:	00c00284 	movi	r3,10
    2a80:	10c0c426 	beq	r2,r3,2d94 <___vfprintf_internal_r+0x3b4>
    2a84:	d8c00404 	addi	r3,sp,16
    2a88:	05000074 	movhi	r20,1
    2a8c:	d9001e04 	addi	r4,sp,120
    2a90:	a5059184 	addi	r20,r20,5702
    2a94:	d8c01e15 	stw	r3,120(sp)
    2a98:	d8002015 	stw	zero,128(sp)
    2a9c:	d8001f15 	stw	zero,124(sp)
    2aa0:	d8003315 	stw	zero,204(sp)
    2aa4:	d8003615 	stw	zero,216(sp)
    2aa8:	d8003815 	stw	zero,224(sp)
    2aac:	1811883a 	mov	r8,r3
    2ab0:	d8003915 	stw	zero,228(sp)
    2ab4:	d8003a15 	stw	zero,232(sp)
    2ab8:	d8002f15 	stw	zero,188(sp)
    2abc:	d9002815 	stw	r4,160(sp)
    2ac0:	a8800007 	ldb	r2,0(r21)
    2ac4:	10027b26 	beq	r2,zero,34b4 <___vfprintf_internal_r+0xad4>
    2ac8:	00c00944 	movi	r3,37
    2acc:	a821883a 	mov	r16,r21
    2ad0:	10c0021e 	bne	r2,r3,2adc <___vfprintf_internal_r+0xfc>
    2ad4:	00001406 	br	2b28 <___vfprintf_internal_r+0x148>
    2ad8:	10c00326 	beq	r2,r3,2ae8 <___vfprintf_internal_r+0x108>
    2adc:	84000044 	addi	r16,r16,1
    2ae0:	80800007 	ldb	r2,0(r16)
    2ae4:	103ffc1e 	bne	r2,zero,2ad8 <___vfprintf_internal_r+0xf8>
    2ae8:	8563c83a 	sub	r17,r16,r21
    2aec:	88000e26 	beq	r17,zero,2b28 <___vfprintf_internal_r+0x148>
    2af0:	d8c02017 	ldw	r3,128(sp)
    2af4:	d8801f17 	ldw	r2,124(sp)
    2af8:	45400015 	stw	r21,0(r8)
    2afc:	1c47883a 	add	r3,r3,r17
    2b00:	10800044 	addi	r2,r2,1
    2b04:	d8c02015 	stw	r3,128(sp)
    2b08:	44400115 	stw	r17,4(r8)
    2b0c:	d8801f15 	stw	r2,124(sp)
    2b10:	00c001c4 	movi	r3,7
    2b14:	1880a716 	blt	r3,r2,2db4 <___vfprintf_internal_r+0x3d4>
    2b18:	42000204 	addi	r8,r8,8
    2b1c:	d9402f17 	ldw	r5,188(sp)
    2b20:	2c4b883a 	add	r5,r5,r17
    2b24:	d9402f15 	stw	r5,188(sp)
    2b28:	80800007 	ldb	r2,0(r16)
    2b2c:	1000a826 	beq	r2,zero,2dd0 <___vfprintf_internal_r+0x3f0>
    2b30:	84400047 	ldb	r17,1(r16)
    2b34:	00bfffc4 	movi	r2,-1
    2b38:	85400044 	addi	r21,r16,1
    2b3c:	d8002785 	stb	zero,158(sp)
    2b40:	0007883a 	mov	r3,zero
    2b44:	000f883a 	mov	r7,zero
    2b48:	d8802915 	stw	r2,164(sp)
    2b4c:	d8003115 	stw	zero,196(sp)
    2b50:	0025883a 	mov	r18,zero
    2b54:	01401604 	movi	r5,88
    2b58:	01800244 	movi	r6,9
    2b5c:	02800a84 	movi	r10,42
    2b60:	02401b04 	movi	r9,108
    2b64:	ad400044 	addi	r21,r21,1
    2b68:	88bff804 	addi	r2,r17,-32
    2b6c:	28830436 	bltu	r5,r2,3780 <___vfprintf_internal_r+0xda0>
    2b70:	100490ba 	slli	r2,r2,2
    2b74:	01000034 	movhi	r4,0
    2b78:	210ae204 	addi	r4,r4,11144
    2b7c:	1105883a 	add	r2,r2,r4
    2b80:	10800017 	ldw	r2,0(r2)
    2b84:	1000683a 	jmp	r2
    2b88:	000036a0 	cmpeqi	zero,zero,218
    2b8c:	00003780 	call	378 <init_camera+0xf8>
    2b90:	00003780 	call	378 <init_camera+0xf8>
    2b94:	000036c0 	call	36c <init_camera+0xec>
    2b98:	00003780 	call	378 <init_camera+0xf8>
    2b9c:	00003780 	call	378 <init_camera+0xf8>
    2ba0:	00003780 	call	378 <init_camera+0xf8>
    2ba4:	00003780 	call	378 <init_camera+0xf8>
    2ba8:	00003780 	call	378 <init_camera+0xf8>
    2bac:	00003780 	call	378 <init_camera+0xf8>
    2bb0:	00002e34 	movhi	zero,184
    2bb4:	000035dc 	xori	zero,zero,215
    2bb8:	00003780 	call	378 <init_camera+0xf8>
    2bbc:	00002cfc 	xorhi	zero,zero,179
    2bc0:	00002e5c 	xori	zero,zero,185
    2bc4:	00003780 	call	378 <init_camera+0xf8>
    2bc8:	00002e9c 	xori	zero,zero,186
    2bcc:	00002ea8 	cmpgeui	zero,zero,186
    2bd0:	00002ea8 	cmpgeui	zero,zero,186
    2bd4:	00002ea8 	cmpgeui	zero,zero,186
    2bd8:	00002ea8 	cmpgeui	zero,zero,186
    2bdc:	00002ea8 	cmpgeui	zero,zero,186
    2be0:	00002ea8 	cmpgeui	zero,zero,186
    2be4:	00002ea8 	cmpgeui	zero,zero,186
    2be8:	00002ea8 	cmpgeui	zero,zero,186
    2bec:	00002ea8 	cmpgeui	zero,zero,186
    2bf0:	00003780 	call	378 <init_camera+0xf8>
    2bf4:	00003780 	call	378 <init_camera+0xf8>
    2bf8:	00003780 	call	378 <init_camera+0xf8>
    2bfc:	00003780 	call	378 <init_camera+0xf8>
    2c00:	00003780 	call	378 <init_camera+0xf8>
    2c04:	00003780 	call	378 <init_camera+0xf8>
    2c08:	00003780 	call	378 <init_camera+0xf8>
    2c0c:	00003780 	call	378 <init_camera+0xf8>
    2c10:	00003780 	call	378 <init_camera+0xf8>
    2c14:	00003780 	call	378 <init_camera+0xf8>
    2c18:	00002edc 	xori	zero,zero,187
    2c1c:	00002f98 	cmpnei	zero,zero,190
    2c20:	00003780 	call	378 <init_camera+0xf8>
    2c24:	00002f98 	cmpnei	zero,zero,190
    2c28:	00003780 	call	378 <init_camera+0xf8>
    2c2c:	00003780 	call	378 <init_camera+0xf8>
    2c30:	00003780 	call	378 <init_camera+0xf8>
    2c34:	00003780 	call	378 <init_camera+0xf8>
    2c38:	00003038 	rdprs	zero,zero,192
    2c3c:	00003780 	call	378 <init_camera+0xf8>
    2c40:	00003780 	call	378 <init_camera+0xf8>
    2c44:	00003044 	movi	zero,193
    2c48:	00003780 	call	378 <init_camera+0xf8>
    2c4c:	00003780 	call	378 <init_camera+0xf8>
    2c50:	00003780 	call	378 <init_camera+0xf8>
    2c54:	00003780 	call	378 <init_camera+0xf8>
    2c58:	00003780 	call	378 <init_camera+0xf8>
    2c5c:	000034bc 	xorhi	zero,zero,210
    2c60:	00003780 	call	378 <init_camera+0xf8>
    2c64:	00003780 	call	378 <init_camera+0xf8>
    2c68:	0000351c 	xori	zero,zero,212
    2c6c:	00003780 	call	378 <init_camera+0xf8>
    2c70:	00003780 	call	378 <init_camera+0xf8>
    2c74:	00003780 	call	378 <init_camera+0xf8>
    2c78:	00003780 	call	378 <init_camera+0xf8>
    2c7c:	00003780 	call	378 <init_camera+0xf8>
    2c80:	00003780 	call	378 <init_camera+0xf8>
    2c84:	00003780 	call	378 <init_camera+0xf8>
    2c88:	00003780 	call	378 <init_camera+0xf8>
    2c8c:	00003780 	call	378 <init_camera+0xf8>
    2c90:	00003780 	call	378 <init_camera+0xf8>
    2c94:	0000372c 	andhi	zero,zero,220
    2c98:	000036cc 	andi	zero,zero,219
    2c9c:	00002f98 	cmpnei	zero,zero,190
    2ca0:	00002f98 	cmpnei	zero,zero,190
    2ca4:	00002f98 	cmpnei	zero,zero,190
    2ca8:	000036dc 	xori	zero,zero,219
    2cac:	000036cc 	andi	zero,zero,219
    2cb0:	00003780 	call	378 <init_camera+0xf8>
    2cb4:	00003780 	call	378 <init_camera+0xf8>
    2cb8:	000036e8 	cmpgeui	zero,zero,219
    2cbc:	00003780 	call	378 <init_camera+0xf8>
    2cc0:	000036f8 	rdprs	zero,zero,219
    2cc4:	000035cc 	andi	zero,zero,215
    2cc8:	00002d08 	cmpgei	zero,zero,180
    2ccc:	000035ec 	andhi	zero,zero,215
    2cd0:	00003780 	call	378 <init_camera+0xf8>
    2cd4:	000035f8 	rdprs	zero,zero,215
    2cd8:	00003780 	call	378 <init_camera+0xf8>
    2cdc:	00003654 	movui	zero,217
    2ce0:	00003780 	call	378 <init_camera+0xf8>
    2ce4:	00003780 	call	378 <init_camera+0xf8>
    2ce8:	00003664 	muli	zero,zero,217
    2cec:	d9003117 	ldw	r4,196(sp)
    2cf0:	d8802d15 	stw	r2,180(sp)
    2cf4:	0109c83a 	sub	r4,zero,r4
    2cf8:	d9003115 	stw	r4,196(sp)
    2cfc:	94800114 	ori	r18,r18,4
    2d00:	ac400007 	ldb	r17,0(r21)
    2d04:	003f9706 	br	2b64 <___vfprintf_internal_r+0x184>
    2d08:	00800c04 	movi	r2,48
    2d0c:	d9002d17 	ldw	r4,180(sp)
    2d10:	d9402917 	ldw	r5,164(sp)
    2d14:	d8802705 	stb	r2,156(sp)
    2d18:	00801e04 	movi	r2,120
    2d1c:	d8802745 	stb	r2,157(sp)
    2d20:	d8002785 	stb	zero,158(sp)
    2d24:	20c00104 	addi	r3,r4,4
    2d28:	24c00017 	ldw	r19,0(r4)
    2d2c:	002d883a 	mov	r22,zero
    2d30:	90800094 	ori	r2,r18,2
    2d34:	28029a16 	blt	r5,zero,37a0 <___vfprintf_internal_r+0xdc0>
    2d38:	00bfdfc4 	movi	r2,-129
    2d3c:	90a4703a 	and	r18,r18,r2
    2d40:	d8c02d15 	stw	r3,180(sp)
    2d44:	94800094 	ori	r18,r18,2
    2d48:	9802871e 	bne	r19,zero,3768 <___vfprintf_internal_r+0xd88>
    2d4c:	00800074 	movhi	r2,1
    2d50:	10858a04 	addi	r2,r2,5672
    2d54:	d8803915 	stw	r2,228(sp)
    2d58:	04401e04 	movi	r17,120
    2d5c:	d8802917 	ldw	r2,164(sp)
    2d60:	0039883a 	mov	fp,zero
    2d64:	1001e926 	beq	r2,zero,350c <___vfprintf_internal_r+0xb2c>
    2d68:	0027883a 	mov	r19,zero
    2d6c:	002d883a 	mov	r22,zero
    2d70:	00020506 	br	3588 <___vfprintf_internal_r+0xba8>
    2d74:	d9002c17 	ldw	r4,176(sp)
    2d78:	b80b883a 	mov	r5,r23
    2d7c:	0004cb00 	call	4cb0 <__swsetup_r>
    2d80:	1005ac1e 	bne	r2,zero,4434 <___vfprintf_internal_r+0x1a54>
    2d84:	b880030b 	ldhu	r2,12(r23)
    2d88:	00c00284 	movi	r3,10
    2d8c:	1080068c 	andi	r2,r2,26
    2d90:	10ff3c1e 	bne	r2,r3,2a84 <___vfprintf_internal_r+0xa4>
    2d94:	b880038f 	ldh	r2,14(r23)
    2d98:	103f3a16 	blt	r2,zero,2a84 <___vfprintf_internal_r+0xa4>
    2d9c:	d9c02d17 	ldw	r7,180(sp)
    2da0:	d9002c17 	ldw	r4,176(sp)
    2da4:	a80d883a 	mov	r6,r21
    2da8:	b80b883a 	mov	r5,r23
    2dac:	0004bf40 	call	4bf4 <__sbprintf>
    2db0:	00001106 	br	2df8 <___vfprintf_internal_r+0x418>
    2db4:	d9002c17 	ldw	r4,176(sp)
    2db8:	d9801e04 	addi	r6,sp,120
    2dbc:	b80b883a 	mov	r5,r23
    2dc0:	000977c0 	call	977c <__sprint_r>
    2dc4:	1000081e 	bne	r2,zero,2de8 <___vfprintf_internal_r+0x408>
    2dc8:	da000404 	addi	r8,sp,16
    2dcc:	003f5306 	br	2b1c <___vfprintf_internal_r+0x13c>
    2dd0:	d8802017 	ldw	r2,128(sp)
    2dd4:	10000426 	beq	r2,zero,2de8 <___vfprintf_internal_r+0x408>
    2dd8:	d9002c17 	ldw	r4,176(sp)
    2ddc:	d9801e04 	addi	r6,sp,120
    2de0:	b80b883a 	mov	r5,r23
    2de4:	000977c0 	call	977c <__sprint_r>
    2de8:	b880030b 	ldhu	r2,12(r23)
    2dec:	1080100c 	andi	r2,r2,64
    2df0:	1005901e 	bne	r2,zero,4434 <___vfprintf_internal_r+0x1a54>
    2df4:	d8802f17 	ldw	r2,188(sp)
    2df8:	dfc04717 	ldw	ra,284(sp)
    2dfc:	df004617 	ldw	fp,280(sp)
    2e00:	ddc04517 	ldw	r23,276(sp)
    2e04:	dd804417 	ldw	r22,272(sp)
    2e08:	dd404317 	ldw	r21,268(sp)
    2e0c:	dd004217 	ldw	r20,264(sp)
    2e10:	dcc04117 	ldw	r19,260(sp)
    2e14:	dc804017 	ldw	r18,256(sp)
    2e18:	dc403f17 	ldw	r17,252(sp)
    2e1c:	dc003e17 	ldw	r16,248(sp)
    2e20:	dec04804 	addi	sp,sp,288
    2e24:	f800283a 	ret
    2e28:	d9002c17 	ldw	r4,176(sp)
    2e2c:	0006c840 	call	6c84 <__sinit>
    2e30:	003f0406 	br	2a44 <___vfprintf_internal_r+0x64>
    2e34:	d8802d17 	ldw	r2,180(sp)
    2e38:	d9002d17 	ldw	r4,180(sp)
    2e3c:	10800017 	ldw	r2,0(r2)
    2e40:	d8803115 	stw	r2,196(sp)
    2e44:	20800104 	addi	r2,r4,4
    2e48:	d9003117 	ldw	r4,196(sp)
    2e4c:	203fa716 	blt	r4,zero,2cec <___vfprintf_internal_r+0x30c>
    2e50:	d8802d15 	stw	r2,180(sp)
    2e54:	ac400007 	ldb	r17,0(r21)
    2e58:	003f4206 	br	2b64 <___vfprintf_internal_r+0x184>
    2e5c:	ac400007 	ldb	r17,0(r21)
    2e60:	aac00044 	addi	r11,r21,1
    2e64:	8a872826 	beq	r17,r10,4b08 <___vfprintf_internal_r+0x2128>
    2e68:	88bff404 	addi	r2,r17,-48
    2e6c:	0009883a 	mov	r4,zero
    2e70:	30867d36 	bltu	r6,r2,4868 <___vfprintf_internal_r+0x1e88>
    2e74:	5c400007 	ldb	r17,0(r11)
    2e78:	210002a4 	muli	r4,r4,10
    2e7c:	5d400044 	addi	r21,r11,1
    2e80:	a817883a 	mov	r11,r21
    2e84:	2089883a 	add	r4,r4,r2
    2e88:	88bff404 	addi	r2,r17,-48
    2e8c:	30bff92e 	bgeu	r6,r2,2e74 <___vfprintf_internal_r+0x494>
    2e90:	2005c916 	blt	r4,zero,45b8 <___vfprintf_internal_r+0x1bd8>
    2e94:	d9002915 	stw	r4,164(sp)
    2e98:	003f3306 	br	2b68 <___vfprintf_internal_r+0x188>
    2e9c:	94802014 	ori	r18,r18,128
    2ea0:	ac400007 	ldb	r17,0(r21)
    2ea4:	003f2f06 	br	2b64 <___vfprintf_internal_r+0x184>
    2ea8:	a809883a 	mov	r4,r21
    2eac:	d8003115 	stw	zero,196(sp)
    2eb0:	88bff404 	addi	r2,r17,-48
    2eb4:	0017883a 	mov	r11,zero
    2eb8:	24400007 	ldb	r17,0(r4)
    2ebc:	5ac002a4 	muli	r11,r11,10
    2ec0:	ad400044 	addi	r21,r21,1
    2ec4:	a809883a 	mov	r4,r21
    2ec8:	12d7883a 	add	r11,r2,r11
    2ecc:	88bff404 	addi	r2,r17,-48
    2ed0:	30bff92e 	bgeu	r6,r2,2eb8 <___vfprintf_internal_r+0x4d8>
    2ed4:	dac03115 	stw	r11,196(sp)
    2ed8:	003f2306 	br	2b68 <___vfprintf_internal_r+0x188>
    2edc:	18c03fcc 	andi	r3,r3,255
    2ee0:	18072b1e 	bne	r3,zero,4b90 <___vfprintf_internal_r+0x21b0>
    2ee4:	94800414 	ori	r18,r18,16
    2ee8:	9080080c 	andi	r2,r18,32
    2eec:	10037b26 	beq	r2,zero,3cdc <___vfprintf_internal_r+0x12fc>
    2ef0:	d9402d17 	ldw	r5,180(sp)
    2ef4:	28800117 	ldw	r2,4(r5)
    2ef8:	2cc00017 	ldw	r19,0(r5)
    2efc:	29400204 	addi	r5,r5,8
    2f00:	d9402d15 	stw	r5,180(sp)
    2f04:	102d883a 	mov	r22,r2
    2f08:	10044b16 	blt	r2,zero,4038 <___vfprintf_internal_r+0x1658>
    2f0c:	d9402917 	ldw	r5,164(sp)
    2f10:	df002783 	ldbu	fp,158(sp)
    2f14:	2803bc16 	blt	r5,zero,3e08 <___vfprintf_internal_r+0x1428>
    2f18:	00ffdfc4 	movi	r3,-129
    2f1c:	9d84b03a 	or	r2,r19,r22
    2f20:	90e4703a 	and	r18,r18,r3
    2f24:	10017726 	beq	r2,zero,3504 <___vfprintf_internal_r+0xb24>
    2f28:	b0038326 	beq	r22,zero,3d38 <___vfprintf_internal_r+0x1358>
    2f2c:	dc402a15 	stw	r17,168(sp)
    2f30:	dc001e04 	addi	r16,sp,120
    2f34:	b023883a 	mov	r17,r22
    2f38:	402d883a 	mov	r22,r8
    2f3c:	9809883a 	mov	r4,r19
    2f40:	880b883a 	mov	r5,r17
    2f44:	01800284 	movi	r6,10
    2f48:	000f883a 	mov	r7,zero
    2f4c:	000bb740 	call	bb74 <__umoddi3>
    2f50:	10800c04 	addi	r2,r2,48
    2f54:	843fffc4 	addi	r16,r16,-1
    2f58:	9809883a 	mov	r4,r19
    2f5c:	880b883a 	mov	r5,r17
    2f60:	80800005 	stb	r2,0(r16)
    2f64:	01800284 	movi	r6,10
    2f68:	000f883a 	mov	r7,zero
    2f6c:	000b5fc0 	call	b5fc <__udivdi3>
    2f70:	1027883a 	mov	r19,r2
    2f74:	10c4b03a 	or	r2,r2,r3
    2f78:	1823883a 	mov	r17,r3
    2f7c:	103fef1e 	bne	r2,zero,2f3c <___vfprintf_internal_r+0x55c>
    2f80:	d8c02817 	ldw	r3,160(sp)
    2f84:	dc402a17 	ldw	r17,168(sp)
    2f88:	b011883a 	mov	r8,r22
    2f8c:	1c07c83a 	sub	r3,r3,r16
    2f90:	d8c02e15 	stw	r3,184(sp)
    2f94:	00005906 	br	30fc <___vfprintf_internal_r+0x71c>
    2f98:	18c03fcc 	andi	r3,r3,255
    2f9c:	1806fa1e 	bne	r3,zero,4b88 <___vfprintf_internal_r+0x21a8>
    2fa0:	9080020c 	andi	r2,r18,8
    2fa4:	10048a26 	beq	r2,zero,41d0 <___vfprintf_internal_r+0x17f0>
    2fa8:	d8c02d17 	ldw	r3,180(sp)
    2fac:	d9002d17 	ldw	r4,180(sp)
    2fb0:	d9402d17 	ldw	r5,180(sp)
    2fb4:	18c00017 	ldw	r3,0(r3)
    2fb8:	21000117 	ldw	r4,4(r4)
    2fbc:	29400204 	addi	r5,r5,8
    2fc0:	d8c03615 	stw	r3,216(sp)
    2fc4:	d9003815 	stw	r4,224(sp)
    2fc8:	d9402d15 	stw	r5,180(sp)
    2fcc:	d9003617 	ldw	r4,216(sp)
    2fd0:	d9403817 	ldw	r5,224(sp)
    2fd4:	da003d15 	stw	r8,244(sp)
    2fd8:	04000044 	movi	r16,1
    2fdc:	00093f40 	call	93f4 <__fpclassifyd>
    2fe0:	da003d17 	ldw	r8,244(sp)
    2fe4:	14041f1e 	bne	r2,r16,4064 <___vfprintf_internal_r+0x1684>
    2fe8:	d9003617 	ldw	r4,216(sp)
    2fec:	d9403817 	ldw	r5,224(sp)
    2ff0:	000d883a 	mov	r6,zero
    2ff4:	000f883a 	mov	r7,zero
    2ff8:	000d3a40 	call	d3a4 <__ledf2>
    2ffc:	da003d17 	ldw	r8,244(sp)
    3000:	1005be16 	blt	r2,zero,46fc <___vfprintf_internal_r+0x1d1c>
    3004:	df002783 	ldbu	fp,158(sp)
    3008:	008011c4 	movi	r2,71
    300c:	1445330e 	bge	r2,r17,44dc <___vfprintf_internal_r+0x1afc>
    3010:	04000074 	movhi	r16,1
    3014:	84058204 	addi	r16,r16,5640
    3018:	00c000c4 	movi	r3,3
    301c:	00bfdfc4 	movi	r2,-129
    3020:	d8c02a15 	stw	r3,168(sp)
    3024:	90a4703a 	and	r18,r18,r2
    3028:	d8c02e15 	stw	r3,184(sp)
    302c:	d8002915 	stw	zero,164(sp)
    3030:	d8003215 	stw	zero,200(sp)
    3034:	00003706 	br	3114 <___vfprintf_internal_r+0x734>
    3038:	94800214 	ori	r18,r18,8
    303c:	ac400007 	ldb	r17,0(r21)
    3040:	003ec806 	br	2b64 <___vfprintf_internal_r+0x184>
    3044:	18c03fcc 	andi	r3,r3,255
    3048:	1806db1e 	bne	r3,zero,4bb8 <___vfprintf_internal_r+0x21d8>
    304c:	94800414 	ori	r18,r18,16
    3050:	9080080c 	andi	r2,r18,32
    3054:	1002d826 	beq	r2,zero,3bb8 <___vfprintf_internal_r+0x11d8>
    3058:	d9402d17 	ldw	r5,180(sp)
    305c:	d8c02917 	ldw	r3,164(sp)
    3060:	d8002785 	stb	zero,158(sp)
    3064:	28800204 	addi	r2,r5,8
    3068:	2cc00017 	ldw	r19,0(r5)
    306c:	2d800117 	ldw	r22,4(r5)
    3070:	18048f16 	blt	r3,zero,42b0 <___vfprintf_internal_r+0x18d0>
    3074:	013fdfc4 	movi	r4,-129
    3078:	9d86b03a 	or	r3,r19,r22
    307c:	d8802d15 	stw	r2,180(sp)
    3080:	9124703a 	and	r18,r18,r4
    3084:	1802d91e 	bne	r3,zero,3bec <___vfprintf_internal_r+0x120c>
    3088:	d8c02917 	ldw	r3,164(sp)
    308c:	0039883a 	mov	fp,zero
    3090:	1805c326 	beq	r3,zero,47a0 <___vfprintf_internal_r+0x1dc0>
    3094:	0027883a 	mov	r19,zero
    3098:	002d883a 	mov	r22,zero
    309c:	dc001e04 	addi	r16,sp,120
    30a0:	9806d0fa 	srli	r3,r19,3
    30a4:	b008977a 	slli	r4,r22,29
    30a8:	b02cd0fa 	srli	r22,r22,3
    30ac:	9cc001cc 	andi	r19,r19,7
    30b0:	98800c04 	addi	r2,r19,48
    30b4:	843fffc4 	addi	r16,r16,-1
    30b8:	20e6b03a 	or	r19,r4,r3
    30bc:	80800005 	stb	r2,0(r16)
    30c0:	9d86b03a 	or	r3,r19,r22
    30c4:	183ff61e 	bne	r3,zero,30a0 <___vfprintf_internal_r+0x6c0>
    30c8:	90c0004c 	andi	r3,r18,1
    30cc:	18013b26 	beq	r3,zero,35bc <___vfprintf_internal_r+0xbdc>
    30d0:	10803fcc 	andi	r2,r2,255
    30d4:	1080201c 	xori	r2,r2,128
    30d8:	10bfe004 	addi	r2,r2,-128
    30dc:	00c00c04 	movi	r3,48
    30e0:	10c13626 	beq	r2,r3,35bc <___vfprintf_internal_r+0xbdc>
    30e4:	80ffffc5 	stb	r3,-1(r16)
    30e8:	d8c02817 	ldw	r3,160(sp)
    30ec:	80bfffc4 	addi	r2,r16,-1
    30f0:	1021883a 	mov	r16,r2
    30f4:	1887c83a 	sub	r3,r3,r2
    30f8:	d8c02e15 	stw	r3,184(sp)
    30fc:	d8802e17 	ldw	r2,184(sp)
    3100:	d9002917 	ldw	r4,164(sp)
    3104:	1100010e 	bge	r2,r4,310c <___vfprintf_internal_r+0x72c>
    3108:	2005883a 	mov	r2,r4
    310c:	d8802a15 	stw	r2,168(sp)
    3110:	d8003215 	stw	zero,200(sp)
    3114:	e7003fcc 	andi	fp,fp,255
    3118:	e700201c 	xori	fp,fp,128
    311c:	e73fe004 	addi	fp,fp,-128
    3120:	e0000326 	beq	fp,zero,3130 <___vfprintf_internal_r+0x750>
    3124:	d8c02a17 	ldw	r3,168(sp)
    3128:	18c00044 	addi	r3,r3,1
    312c:	d8c02a15 	stw	r3,168(sp)
    3130:	90c0008c 	andi	r3,r18,2
    3134:	d8c02b15 	stw	r3,172(sp)
    3138:	18000326 	beq	r3,zero,3148 <___vfprintf_internal_r+0x768>
    313c:	d8c02a17 	ldw	r3,168(sp)
    3140:	18c00084 	addi	r3,r3,2
    3144:	d8c02a15 	stw	r3,168(sp)
    3148:	90c0210c 	andi	r3,r18,132
    314c:	d8c03015 	stw	r3,192(sp)
    3150:	1801a31e 	bne	r3,zero,37e0 <___vfprintf_internal_r+0xe00>
    3154:	d9003117 	ldw	r4,196(sp)
    3158:	d8c02a17 	ldw	r3,168(sp)
    315c:	20e7c83a 	sub	r19,r4,r3
    3160:	04c19f0e 	bge	zero,r19,37e0 <___vfprintf_internal_r+0xe00>
    3164:	02400404 	movi	r9,16
    3168:	d8c02017 	ldw	r3,128(sp)
    316c:	d8801f17 	ldw	r2,124(sp)
    3170:	4cc50d0e 	bge	r9,r19,45a8 <___vfprintf_internal_r+0x1bc8>
    3174:	01400074 	movhi	r5,1
    3178:	29459584 	addi	r5,r5,5718
    317c:	dc403b15 	stw	r17,236(sp)
    3180:	d9403515 	stw	r5,212(sp)
    3184:	9823883a 	mov	r17,r19
    3188:	482d883a 	mov	r22,r9
    318c:	9027883a 	mov	r19,r18
    3190:	070001c4 	movi	fp,7
    3194:	8025883a 	mov	r18,r16
    3198:	dc002c17 	ldw	r16,176(sp)
    319c:	00000306 	br	31ac <___vfprintf_internal_r+0x7cc>
    31a0:	8c7ffc04 	addi	r17,r17,-16
    31a4:	42000204 	addi	r8,r8,8
    31a8:	b440130e 	bge	r22,r17,31f8 <___vfprintf_internal_r+0x818>
    31ac:	01000074 	movhi	r4,1
    31b0:	18c00404 	addi	r3,r3,16
    31b4:	10800044 	addi	r2,r2,1
    31b8:	21059584 	addi	r4,r4,5718
    31bc:	41000015 	stw	r4,0(r8)
    31c0:	45800115 	stw	r22,4(r8)
    31c4:	d8c02015 	stw	r3,128(sp)
    31c8:	d8801f15 	stw	r2,124(sp)
    31cc:	e0bff40e 	bge	fp,r2,31a0 <___vfprintf_internal_r+0x7c0>
    31d0:	d9801e04 	addi	r6,sp,120
    31d4:	b80b883a 	mov	r5,r23
    31d8:	8009883a 	mov	r4,r16
    31dc:	000977c0 	call	977c <__sprint_r>
    31e0:	103f011e 	bne	r2,zero,2de8 <___vfprintf_internal_r+0x408>
    31e4:	8c7ffc04 	addi	r17,r17,-16
    31e8:	d8c02017 	ldw	r3,128(sp)
    31ec:	d8801f17 	ldw	r2,124(sp)
    31f0:	da000404 	addi	r8,sp,16
    31f4:	b47fed16 	blt	r22,r17,31ac <___vfprintf_internal_r+0x7cc>
    31f8:	9021883a 	mov	r16,r18
    31fc:	9825883a 	mov	r18,r19
    3200:	8827883a 	mov	r19,r17
    3204:	dc403b17 	ldw	r17,236(sp)
    3208:	d9403517 	ldw	r5,212(sp)
    320c:	98c7883a 	add	r3,r19,r3
    3210:	10800044 	addi	r2,r2,1
    3214:	41400015 	stw	r5,0(r8)
    3218:	44c00115 	stw	r19,4(r8)
    321c:	d8c02015 	stw	r3,128(sp)
    3220:	d8801f15 	stw	r2,124(sp)
    3224:	010001c4 	movi	r4,7
    3228:	2082a316 	blt	r4,r2,3cb8 <___vfprintf_internal_r+0x12d8>
    322c:	df002787 	ldb	fp,158(sp)
    3230:	42000204 	addi	r8,r8,8
    3234:	e0000c26 	beq	fp,zero,3268 <___vfprintf_internal_r+0x888>
    3238:	d8801f17 	ldw	r2,124(sp)
    323c:	d9002784 	addi	r4,sp,158
    3240:	18c00044 	addi	r3,r3,1
    3244:	10800044 	addi	r2,r2,1
    3248:	41000015 	stw	r4,0(r8)
    324c:	01000044 	movi	r4,1
    3250:	41000115 	stw	r4,4(r8)
    3254:	d8c02015 	stw	r3,128(sp)
    3258:	d8801f15 	stw	r2,124(sp)
    325c:	010001c4 	movi	r4,7
    3260:	20823c16 	blt	r4,r2,3b54 <___vfprintf_internal_r+0x1174>
    3264:	42000204 	addi	r8,r8,8
    3268:	d8802b17 	ldw	r2,172(sp)
    326c:	10000c26 	beq	r2,zero,32a0 <___vfprintf_internal_r+0x8c0>
    3270:	d8801f17 	ldw	r2,124(sp)
    3274:	d9002704 	addi	r4,sp,156
    3278:	18c00084 	addi	r3,r3,2
    327c:	10800044 	addi	r2,r2,1
    3280:	41000015 	stw	r4,0(r8)
    3284:	01000084 	movi	r4,2
    3288:	41000115 	stw	r4,4(r8)
    328c:	d8c02015 	stw	r3,128(sp)
    3290:	d8801f15 	stw	r2,124(sp)
    3294:	010001c4 	movi	r4,7
    3298:	20823616 	blt	r4,r2,3b74 <___vfprintf_internal_r+0x1194>
    329c:	42000204 	addi	r8,r8,8
    32a0:	d9003017 	ldw	r4,192(sp)
    32a4:	00802004 	movi	r2,128
    32a8:	20819926 	beq	r4,r2,3910 <___vfprintf_internal_r+0xf30>
    32ac:	d9402917 	ldw	r5,164(sp)
    32b0:	d8802e17 	ldw	r2,184(sp)
    32b4:	28adc83a 	sub	r22,r5,r2
    32b8:	0580310e 	bge	zero,r22,3380 <___vfprintf_internal_r+0x9a0>
    32bc:	07000404 	movi	fp,16
    32c0:	d8801f17 	ldw	r2,124(sp)
    32c4:	e584140e 	bge	fp,r22,4318 <___vfprintf_internal_r+0x1938>
    32c8:	01400074 	movhi	r5,1
    32cc:	29459184 	addi	r5,r5,5702
    32d0:	dc402915 	stw	r17,164(sp)
    32d4:	d9402b15 	stw	r5,172(sp)
    32d8:	b023883a 	mov	r17,r22
    32dc:	04c001c4 	movi	r19,7
    32e0:	a82d883a 	mov	r22,r21
    32e4:	902b883a 	mov	r21,r18
    32e8:	8025883a 	mov	r18,r16
    32ec:	dc002c17 	ldw	r16,176(sp)
    32f0:	00000306 	br	3300 <___vfprintf_internal_r+0x920>
    32f4:	8c7ffc04 	addi	r17,r17,-16
    32f8:	42000204 	addi	r8,r8,8
    32fc:	e440110e 	bge	fp,r17,3344 <___vfprintf_internal_r+0x964>
    3300:	18c00404 	addi	r3,r3,16
    3304:	10800044 	addi	r2,r2,1
    3308:	45000015 	stw	r20,0(r8)
    330c:	47000115 	stw	fp,4(r8)
    3310:	d8c02015 	stw	r3,128(sp)
    3314:	d8801f15 	stw	r2,124(sp)
    3318:	98bff60e 	bge	r19,r2,32f4 <___vfprintf_internal_r+0x914>
    331c:	d9801e04 	addi	r6,sp,120
    3320:	b80b883a 	mov	r5,r23
    3324:	8009883a 	mov	r4,r16
    3328:	000977c0 	call	977c <__sprint_r>
    332c:	103eae1e 	bne	r2,zero,2de8 <___vfprintf_internal_r+0x408>
    3330:	8c7ffc04 	addi	r17,r17,-16
    3334:	d8c02017 	ldw	r3,128(sp)
    3338:	d8801f17 	ldw	r2,124(sp)
    333c:	da000404 	addi	r8,sp,16
    3340:	e47fef16 	blt	fp,r17,3300 <___vfprintf_internal_r+0x920>
    3344:	9021883a 	mov	r16,r18
    3348:	a825883a 	mov	r18,r21
    334c:	b02b883a 	mov	r21,r22
    3350:	882d883a 	mov	r22,r17
    3354:	dc402917 	ldw	r17,164(sp)
    3358:	d9002b17 	ldw	r4,172(sp)
    335c:	1d87883a 	add	r3,r3,r22
    3360:	10800044 	addi	r2,r2,1
    3364:	41000015 	stw	r4,0(r8)
    3368:	45800115 	stw	r22,4(r8)
    336c:	d8c02015 	stw	r3,128(sp)
    3370:	d8801f15 	stw	r2,124(sp)
    3374:	010001c4 	movi	r4,7
    3378:	2081ee16 	blt	r4,r2,3b34 <___vfprintf_internal_r+0x1154>
    337c:	42000204 	addi	r8,r8,8
    3380:	9080400c 	andi	r2,r18,256
    3384:	1001181e 	bne	r2,zero,37e8 <___vfprintf_internal_r+0xe08>
    3388:	d9402e17 	ldw	r5,184(sp)
    338c:	d8801f17 	ldw	r2,124(sp)
    3390:	44000015 	stw	r16,0(r8)
    3394:	1947883a 	add	r3,r3,r5
    3398:	10800044 	addi	r2,r2,1
    339c:	41400115 	stw	r5,4(r8)
    33a0:	d8c02015 	stw	r3,128(sp)
    33a4:	d8801f15 	stw	r2,124(sp)
    33a8:	010001c4 	movi	r4,7
    33ac:	2081d316 	blt	r4,r2,3afc <___vfprintf_internal_r+0x111c>
    33b0:	42000204 	addi	r8,r8,8
    33b4:	9480010c 	andi	r18,r18,4
    33b8:	90003226 	beq	r18,zero,3484 <___vfprintf_internal_r+0xaa4>
    33bc:	d9403117 	ldw	r5,196(sp)
    33c0:	d8802a17 	ldw	r2,168(sp)
    33c4:	28a1c83a 	sub	r16,r5,r2
    33c8:	04002e0e 	bge	zero,r16,3484 <___vfprintf_internal_r+0xaa4>
    33cc:	04400404 	movi	r17,16
    33d0:	d8801f17 	ldw	r2,124(sp)
    33d4:	8c04a20e 	bge	r17,r16,4660 <___vfprintf_internal_r+0x1c80>
    33d8:	01400074 	movhi	r5,1
    33dc:	29459584 	addi	r5,r5,5718
    33e0:	d9403515 	stw	r5,212(sp)
    33e4:	048001c4 	movi	r18,7
    33e8:	dcc02c17 	ldw	r19,176(sp)
    33ec:	00000306 	br	33fc <___vfprintf_internal_r+0xa1c>
    33f0:	843ffc04 	addi	r16,r16,-16
    33f4:	42000204 	addi	r8,r8,8
    33f8:	8c00130e 	bge	r17,r16,3448 <___vfprintf_internal_r+0xa68>
    33fc:	01000074 	movhi	r4,1
    3400:	18c00404 	addi	r3,r3,16
    3404:	10800044 	addi	r2,r2,1
    3408:	21059584 	addi	r4,r4,5718
    340c:	41000015 	stw	r4,0(r8)
    3410:	44400115 	stw	r17,4(r8)
    3414:	d8c02015 	stw	r3,128(sp)
    3418:	d8801f15 	stw	r2,124(sp)
    341c:	90bff40e 	bge	r18,r2,33f0 <___vfprintf_internal_r+0xa10>
    3420:	d9801e04 	addi	r6,sp,120
    3424:	b80b883a 	mov	r5,r23
    3428:	9809883a 	mov	r4,r19
    342c:	000977c0 	call	977c <__sprint_r>
    3430:	103e6d1e 	bne	r2,zero,2de8 <___vfprintf_internal_r+0x408>
    3434:	843ffc04 	addi	r16,r16,-16
    3438:	d8c02017 	ldw	r3,128(sp)
    343c:	d8801f17 	ldw	r2,124(sp)
    3440:	da000404 	addi	r8,sp,16
    3444:	8c3fed16 	blt	r17,r16,33fc <___vfprintf_internal_r+0xa1c>
    3448:	d9403517 	ldw	r5,212(sp)
    344c:	1c07883a 	add	r3,r3,r16
    3450:	10800044 	addi	r2,r2,1
    3454:	41400015 	stw	r5,0(r8)
    3458:	44000115 	stw	r16,4(r8)
    345c:	d8c02015 	stw	r3,128(sp)
    3460:	d8801f15 	stw	r2,124(sp)
    3464:	010001c4 	movi	r4,7
    3468:	2080060e 	bge	r4,r2,3484 <___vfprintf_internal_r+0xaa4>
    346c:	d9002c17 	ldw	r4,176(sp)
    3470:	d9801e04 	addi	r6,sp,120
    3474:	b80b883a 	mov	r5,r23
    3478:	000977c0 	call	977c <__sprint_r>
    347c:	103e5a1e 	bne	r2,zero,2de8 <___vfprintf_internal_r+0x408>
    3480:	d8c02017 	ldw	r3,128(sp)
    3484:	d8803117 	ldw	r2,196(sp)
    3488:	d9002a17 	ldw	r4,168(sp)
    348c:	1100010e 	bge	r2,r4,3494 <___vfprintf_internal_r+0xab4>
    3490:	2005883a 	mov	r2,r4
    3494:	d9402f17 	ldw	r5,188(sp)
    3498:	288b883a 	add	r5,r5,r2
    349c:	d9402f15 	stw	r5,188(sp)
    34a0:	18019e1e 	bne	r3,zero,3b1c <___vfprintf_internal_r+0x113c>
    34a4:	a8800007 	ldb	r2,0(r21)
    34a8:	d8001f15 	stw	zero,124(sp)
    34ac:	da000404 	addi	r8,sp,16
    34b0:	103d851e 	bne	r2,zero,2ac8 <___vfprintf_internal_r+0xe8>
    34b4:	a821883a 	mov	r16,r21
    34b8:	003d9b06 	br	2b28 <___vfprintf_internal_r+0x148>
    34bc:	18c03fcc 	andi	r3,r3,255
    34c0:	1805c11e 	bne	r3,zero,4bc8 <___vfprintf_internal_r+0x21e8>
    34c4:	94800414 	ori	r18,r18,16
    34c8:	9080080c 	andi	r2,r18,32
    34cc:	10020c26 	beq	r2,zero,3d00 <___vfprintf_internal_r+0x1320>
    34d0:	d8802d17 	ldw	r2,180(sp)
    34d4:	d9002917 	ldw	r4,164(sp)
    34d8:	d8002785 	stb	zero,158(sp)
    34dc:	10c00204 	addi	r3,r2,8
    34e0:	14c00017 	ldw	r19,0(r2)
    34e4:	15800117 	ldw	r22,4(r2)
    34e8:	20040f16 	blt	r4,zero,4528 <___vfprintf_internal_r+0x1b48>
    34ec:	013fdfc4 	movi	r4,-129
    34f0:	9d84b03a 	or	r2,r19,r22
    34f4:	d8c02d15 	stw	r3,180(sp)
    34f8:	9124703a 	and	r18,r18,r4
    34fc:	0039883a 	mov	fp,zero
    3500:	103e891e 	bne	r2,zero,2f28 <___vfprintf_internal_r+0x548>
    3504:	d9002917 	ldw	r4,164(sp)
    3508:	2002c11e 	bne	r4,zero,4010 <___vfprintf_internal_r+0x1630>
    350c:	d8002915 	stw	zero,164(sp)
    3510:	d8002e15 	stw	zero,184(sp)
    3514:	dc001e04 	addi	r16,sp,120
    3518:	003ef806 	br	30fc <___vfprintf_internal_r+0x71c>
    351c:	18c03fcc 	andi	r3,r3,255
    3520:	18059d1e 	bne	r3,zero,4b98 <___vfprintf_internal_r+0x21b8>
    3524:	01400074 	movhi	r5,1
    3528:	29458504 	addi	r5,r5,5652
    352c:	d9403915 	stw	r5,228(sp)
    3530:	9080080c 	andi	r2,r18,32
    3534:	10005226 	beq	r2,zero,3680 <___vfprintf_internal_r+0xca0>
    3538:	d8802d17 	ldw	r2,180(sp)
    353c:	14c00017 	ldw	r19,0(r2)
    3540:	15800117 	ldw	r22,4(r2)
    3544:	10800204 	addi	r2,r2,8
    3548:	d8802d15 	stw	r2,180(sp)
    354c:	9080004c 	andi	r2,r18,1
    3550:	10019026 	beq	r2,zero,3b94 <___vfprintf_internal_r+0x11b4>
    3554:	9d84b03a 	or	r2,r19,r22
    3558:	10036926 	beq	r2,zero,4300 <___vfprintf_internal_r+0x1920>
    355c:	d8c02917 	ldw	r3,164(sp)
    3560:	00800c04 	movi	r2,48
    3564:	d8802705 	stb	r2,156(sp)
    3568:	dc402745 	stb	r17,157(sp)
    356c:	d8002785 	stb	zero,158(sp)
    3570:	90800094 	ori	r2,r18,2
    3574:	18045d16 	blt	r3,zero,46ec <___vfprintf_internal_r+0x1d0c>
    3578:	00bfdfc4 	movi	r2,-129
    357c:	90a4703a 	and	r18,r18,r2
    3580:	94800094 	ori	r18,r18,2
    3584:	0039883a 	mov	fp,zero
    3588:	d9003917 	ldw	r4,228(sp)
    358c:	dc001e04 	addi	r16,sp,120
    3590:	988003cc 	andi	r2,r19,15
    3594:	b006973a 	slli	r3,r22,28
    3598:	2085883a 	add	r2,r4,r2
    359c:	9826d13a 	srli	r19,r19,4
    35a0:	10800003 	ldbu	r2,0(r2)
    35a4:	b02cd13a 	srli	r22,r22,4
    35a8:	843fffc4 	addi	r16,r16,-1
    35ac:	1ce6b03a 	or	r19,r3,r19
    35b0:	80800005 	stb	r2,0(r16)
    35b4:	9d84b03a 	or	r2,r19,r22
    35b8:	103ff51e 	bne	r2,zero,3590 <___vfprintf_internal_r+0xbb0>
    35bc:	d8c02817 	ldw	r3,160(sp)
    35c0:	1c07c83a 	sub	r3,r3,r16
    35c4:	d8c02e15 	stw	r3,184(sp)
    35c8:	003ecc06 	br	30fc <___vfprintf_internal_r+0x71c>
    35cc:	18c03fcc 	andi	r3,r3,255
    35d0:	183e9f26 	beq	r3,zero,3050 <___vfprintf_internal_r+0x670>
    35d4:	d9c02785 	stb	r7,158(sp)
    35d8:	003e9d06 	br	3050 <___vfprintf_internal_r+0x670>
    35dc:	00c00044 	movi	r3,1
    35e0:	01c00ac4 	movi	r7,43
    35e4:	ac400007 	ldb	r17,0(r21)
    35e8:	003d5e06 	br	2b64 <___vfprintf_internal_r+0x184>
    35ec:	94800814 	ori	r18,r18,32
    35f0:	ac400007 	ldb	r17,0(r21)
    35f4:	003d5b06 	br	2b64 <___vfprintf_internal_r+0x184>
    35f8:	d8c02d17 	ldw	r3,180(sp)
    35fc:	d8002785 	stb	zero,158(sp)
    3600:	1c000017 	ldw	r16,0(r3)
    3604:	1cc00104 	addi	r19,r3,4
    3608:	80041926 	beq	r16,zero,4670 <___vfprintf_internal_r+0x1c90>
    360c:	d9002917 	ldw	r4,164(sp)
    3610:	2003d016 	blt	r4,zero,4554 <___vfprintf_internal_r+0x1b74>
    3614:	200d883a 	mov	r6,r4
    3618:	000b883a 	mov	r5,zero
    361c:	8009883a 	mov	r4,r16
    3620:	da003d15 	stw	r8,244(sp)
    3624:	00079e40 	call	79e4 <memchr>
    3628:	da003d17 	ldw	r8,244(sp)
    362c:	10045426 	beq	r2,zero,4780 <___vfprintf_internal_r+0x1da0>
    3630:	1405c83a 	sub	r2,r2,r16
    3634:	d8802e15 	stw	r2,184(sp)
    3638:	1003cc16 	blt	r2,zero,456c <___vfprintf_internal_r+0x1b8c>
    363c:	df002783 	ldbu	fp,158(sp)
    3640:	d8802a15 	stw	r2,168(sp)
    3644:	dcc02d15 	stw	r19,180(sp)
    3648:	d8002915 	stw	zero,164(sp)
    364c:	d8003215 	stw	zero,200(sp)
    3650:	003eb006 	br	3114 <___vfprintf_internal_r+0x734>
    3654:	18c03fcc 	andi	r3,r3,255
    3658:	183f9b26 	beq	r3,zero,34c8 <___vfprintf_internal_r+0xae8>
    365c:	d9c02785 	stb	r7,158(sp)
    3660:	003f9906 	br	34c8 <___vfprintf_internal_r+0xae8>
    3664:	18c03fcc 	andi	r3,r3,255
    3668:	1805551e 	bne	r3,zero,4bc0 <___vfprintf_internal_r+0x21e0>
    366c:	01400074 	movhi	r5,1
    3670:	29458a04 	addi	r5,r5,5672
    3674:	d9403915 	stw	r5,228(sp)
    3678:	9080080c 	andi	r2,r18,32
    367c:	103fae1e 	bne	r2,zero,3538 <___vfprintf_internal_r+0xb58>
    3680:	9080040c 	andi	r2,r18,16
    3684:	1002de26 	beq	r2,zero,4200 <___vfprintf_internal_r+0x1820>
    3688:	d8c02d17 	ldw	r3,180(sp)
    368c:	002d883a 	mov	r22,zero
    3690:	1cc00017 	ldw	r19,0(r3)
    3694:	18c00104 	addi	r3,r3,4
    3698:	d8c02d15 	stw	r3,180(sp)
    369c:	003fab06 	br	354c <___vfprintf_internal_r+0xb6c>
    36a0:	38803fcc 	andi	r2,r7,255
    36a4:	1080201c 	xori	r2,r2,128
    36a8:	10bfe004 	addi	r2,r2,-128
    36ac:	1002d21e 	bne	r2,zero,41f8 <___vfprintf_internal_r+0x1818>
    36b0:	00c00044 	movi	r3,1
    36b4:	01c00804 	movi	r7,32
    36b8:	ac400007 	ldb	r17,0(r21)
    36bc:	003d2906 	br	2b64 <___vfprintf_internal_r+0x184>
    36c0:	94800054 	ori	r18,r18,1
    36c4:	ac400007 	ldb	r17,0(r21)
    36c8:	003d2606 	br	2b64 <___vfprintf_internal_r+0x184>
    36cc:	18c03fcc 	andi	r3,r3,255
    36d0:	183e0526 	beq	r3,zero,2ee8 <___vfprintf_internal_r+0x508>
    36d4:	d9c02785 	stb	r7,158(sp)
    36d8:	003e0306 	br	2ee8 <___vfprintf_internal_r+0x508>
    36dc:	94801014 	ori	r18,r18,64
    36e0:	ac400007 	ldb	r17,0(r21)
    36e4:	003d1f06 	br	2b64 <___vfprintf_internal_r+0x184>
    36e8:	ac400007 	ldb	r17,0(r21)
    36ec:	8a438726 	beq	r17,r9,450c <___vfprintf_internal_r+0x1b2c>
    36f0:	94800414 	ori	r18,r18,16
    36f4:	003d1b06 	br	2b64 <___vfprintf_internal_r+0x184>
    36f8:	18c03fcc 	andi	r3,r3,255
    36fc:	1805341e 	bne	r3,zero,4bd0 <___vfprintf_internal_r+0x21f0>
    3700:	9080080c 	andi	r2,r18,32
    3704:	1002cd26 	beq	r2,zero,423c <___vfprintf_internal_r+0x185c>
    3708:	d9402d17 	ldw	r5,180(sp)
    370c:	d9002f17 	ldw	r4,188(sp)
    3710:	28800017 	ldw	r2,0(r5)
    3714:	2007d7fa 	srai	r3,r4,31
    3718:	29400104 	addi	r5,r5,4
    371c:	d9402d15 	stw	r5,180(sp)
    3720:	11000015 	stw	r4,0(r2)
    3724:	10c00115 	stw	r3,4(r2)
    3728:	003ce506 	br	2ac0 <___vfprintf_internal_r+0xe0>
    372c:	d8c02d17 	ldw	r3,180(sp)
    3730:	d9002d17 	ldw	r4,180(sp)
    3734:	d8002785 	stb	zero,158(sp)
    3738:	18800017 	ldw	r2,0(r3)
    373c:	21000104 	addi	r4,r4,4
    3740:	00c00044 	movi	r3,1
    3744:	d8c02a15 	stw	r3,168(sp)
    3748:	d8801405 	stb	r2,80(sp)
    374c:	d9002d15 	stw	r4,180(sp)
    3750:	d8c02e15 	stw	r3,184(sp)
    3754:	d8002915 	stw	zero,164(sp)
    3758:	d8003215 	stw	zero,200(sp)
    375c:	dc001404 	addi	r16,sp,80
    3760:	0039883a 	mov	fp,zero
    3764:	003e7206 	br	3130 <___vfprintf_internal_r+0x750>
    3768:	01000074 	movhi	r4,1
    376c:	21058a04 	addi	r4,r4,5672
    3770:	0039883a 	mov	fp,zero
    3774:	d9003915 	stw	r4,228(sp)
    3778:	04401e04 	movi	r17,120
    377c:	003f8206 	br	3588 <___vfprintf_internal_r+0xba8>
    3780:	18c03fcc 	andi	r3,r3,255
    3784:	1805061e 	bne	r3,zero,4ba0 <___vfprintf_internal_r+0x21c0>
    3788:	883d9126 	beq	r17,zero,2dd0 <___vfprintf_internal_r+0x3f0>
    378c:	00c00044 	movi	r3,1
    3790:	d8c02a15 	stw	r3,168(sp)
    3794:	dc401405 	stb	r17,80(sp)
    3798:	d8002785 	stb	zero,158(sp)
    379c:	003fec06 	br	3750 <___vfprintf_internal_r+0xd70>
    37a0:	01400074 	movhi	r5,1
    37a4:	29458a04 	addi	r5,r5,5672
    37a8:	d9403915 	stw	r5,228(sp)
    37ac:	d8c02d15 	stw	r3,180(sp)
    37b0:	1025883a 	mov	r18,r2
    37b4:	04401e04 	movi	r17,120
    37b8:	9d84b03a 	or	r2,r19,r22
    37bc:	1000fc1e 	bne	r2,zero,3bb0 <___vfprintf_internal_r+0x11d0>
    37c0:	0039883a 	mov	fp,zero
    37c4:	00800084 	movi	r2,2
    37c8:	10803fcc 	andi	r2,r2,255
    37cc:	00c00044 	movi	r3,1
    37d0:	10c20f26 	beq	r2,r3,4010 <___vfprintf_internal_r+0x1630>
    37d4:	00c00084 	movi	r3,2
    37d8:	10fd6326 	beq	r2,r3,2d68 <___vfprintf_internal_r+0x388>
    37dc:	003e2d06 	br	3094 <___vfprintf_internal_r+0x6b4>
    37e0:	d8c02017 	ldw	r3,128(sp)
    37e4:	003e9306 	br	3234 <___vfprintf_internal_r+0x854>
    37e8:	00801944 	movi	r2,101
    37ec:	14407e0e 	bge	r2,r17,39e8 <___vfprintf_internal_r+0x1008>
    37f0:	d9003617 	ldw	r4,216(sp)
    37f4:	d9403817 	ldw	r5,224(sp)
    37f8:	000d883a 	mov	r6,zero
    37fc:	000f883a 	mov	r7,zero
    3800:	d8c03c15 	stw	r3,240(sp)
    3804:	da003d15 	stw	r8,244(sp)
    3808:	000d2400 	call	d240 <__eqdf2>
    380c:	d8c03c17 	ldw	r3,240(sp)
    3810:	da003d17 	ldw	r8,244(sp)
    3814:	1000f71e 	bne	r2,zero,3bf4 <___vfprintf_internal_r+0x1214>
    3818:	d8801f17 	ldw	r2,124(sp)
    381c:	01000074 	movhi	r4,1
    3820:	21059104 	addi	r4,r4,5700
    3824:	18c00044 	addi	r3,r3,1
    3828:	10800044 	addi	r2,r2,1
    382c:	41000015 	stw	r4,0(r8)
    3830:	01000044 	movi	r4,1
    3834:	41000115 	stw	r4,4(r8)
    3838:	d8c02015 	stw	r3,128(sp)
    383c:	d8801f15 	stw	r2,124(sp)
    3840:	010001c4 	movi	r4,7
    3844:	2082b816 	blt	r4,r2,4328 <___vfprintf_internal_r+0x1948>
    3848:	42000204 	addi	r8,r8,8
    384c:	d8802617 	ldw	r2,152(sp)
    3850:	d9403317 	ldw	r5,204(sp)
    3854:	11400216 	blt	r2,r5,3860 <___vfprintf_internal_r+0xe80>
    3858:	9080004c 	andi	r2,r18,1
    385c:	103ed526 	beq	r2,zero,33b4 <___vfprintf_internal_r+0x9d4>
    3860:	d8803717 	ldw	r2,220(sp)
    3864:	d9003417 	ldw	r4,208(sp)
    3868:	d9403717 	ldw	r5,220(sp)
    386c:	1887883a 	add	r3,r3,r2
    3870:	d8801f17 	ldw	r2,124(sp)
    3874:	41000015 	stw	r4,0(r8)
    3878:	41400115 	stw	r5,4(r8)
    387c:	10800044 	addi	r2,r2,1
    3880:	d8c02015 	stw	r3,128(sp)
    3884:	d8801f15 	stw	r2,124(sp)
    3888:	010001c4 	movi	r4,7
    388c:	20832916 	blt	r4,r2,4534 <___vfprintf_internal_r+0x1b54>
    3890:	42000204 	addi	r8,r8,8
    3894:	d8803317 	ldw	r2,204(sp)
    3898:	143fffc4 	addi	r16,r2,-1
    389c:	043ec50e 	bge	zero,r16,33b4 <___vfprintf_internal_r+0x9d4>
    38a0:	04400404 	movi	r17,16
    38a4:	d8801f17 	ldw	r2,124(sp)
    38a8:	8c00880e 	bge	r17,r16,3acc <___vfprintf_internal_r+0x10ec>
    38ac:	01400074 	movhi	r5,1
    38b0:	29459184 	addi	r5,r5,5702
    38b4:	d9402b15 	stw	r5,172(sp)
    38b8:	058001c4 	movi	r22,7
    38bc:	dcc02c17 	ldw	r19,176(sp)
    38c0:	00000306 	br	38d0 <___vfprintf_internal_r+0xef0>
    38c4:	42000204 	addi	r8,r8,8
    38c8:	843ffc04 	addi	r16,r16,-16
    38cc:	8c00820e 	bge	r17,r16,3ad8 <___vfprintf_internal_r+0x10f8>
    38d0:	18c00404 	addi	r3,r3,16
    38d4:	10800044 	addi	r2,r2,1
    38d8:	45000015 	stw	r20,0(r8)
    38dc:	44400115 	stw	r17,4(r8)
    38e0:	d8c02015 	stw	r3,128(sp)
    38e4:	d8801f15 	stw	r2,124(sp)
    38e8:	b0bff60e 	bge	r22,r2,38c4 <___vfprintf_internal_r+0xee4>
    38ec:	d9801e04 	addi	r6,sp,120
    38f0:	b80b883a 	mov	r5,r23
    38f4:	9809883a 	mov	r4,r19
    38f8:	000977c0 	call	977c <__sprint_r>
    38fc:	103d3a1e 	bne	r2,zero,2de8 <___vfprintf_internal_r+0x408>
    3900:	d8c02017 	ldw	r3,128(sp)
    3904:	d8801f17 	ldw	r2,124(sp)
    3908:	da000404 	addi	r8,sp,16
    390c:	003fee06 	br	38c8 <___vfprintf_internal_r+0xee8>
    3910:	d9403117 	ldw	r5,196(sp)
    3914:	d8802a17 	ldw	r2,168(sp)
    3918:	28adc83a 	sub	r22,r5,r2
    391c:	05be630e 	bge	zero,r22,32ac <___vfprintf_internal_r+0x8cc>
    3920:	07000404 	movi	fp,16
    3924:	d8801f17 	ldw	r2,124(sp)
    3928:	e5838f0e 	bge	fp,r22,4768 <___vfprintf_internal_r+0x1d88>
    392c:	01400074 	movhi	r5,1
    3930:	29459184 	addi	r5,r5,5702
    3934:	dc403015 	stw	r17,192(sp)
    3938:	d9402b15 	stw	r5,172(sp)
    393c:	b023883a 	mov	r17,r22
    3940:	04c001c4 	movi	r19,7
    3944:	a82d883a 	mov	r22,r21
    3948:	902b883a 	mov	r21,r18
    394c:	8025883a 	mov	r18,r16
    3950:	dc002c17 	ldw	r16,176(sp)
    3954:	00000306 	br	3964 <___vfprintf_internal_r+0xf84>
    3958:	8c7ffc04 	addi	r17,r17,-16
    395c:	42000204 	addi	r8,r8,8
    3960:	e440110e 	bge	fp,r17,39a8 <___vfprintf_internal_r+0xfc8>
    3964:	18c00404 	addi	r3,r3,16
    3968:	10800044 	addi	r2,r2,1
    396c:	45000015 	stw	r20,0(r8)
    3970:	47000115 	stw	fp,4(r8)
    3974:	d8c02015 	stw	r3,128(sp)
    3978:	d8801f15 	stw	r2,124(sp)
    397c:	98bff60e 	bge	r19,r2,3958 <___vfprintf_internal_r+0xf78>
    3980:	d9801e04 	addi	r6,sp,120
    3984:	b80b883a 	mov	r5,r23
    3988:	8009883a 	mov	r4,r16
    398c:	000977c0 	call	977c <__sprint_r>
    3990:	103d151e 	bne	r2,zero,2de8 <___vfprintf_internal_r+0x408>
    3994:	8c7ffc04 	addi	r17,r17,-16
    3998:	d8c02017 	ldw	r3,128(sp)
    399c:	d8801f17 	ldw	r2,124(sp)
    39a0:	da000404 	addi	r8,sp,16
    39a4:	e47fef16 	blt	fp,r17,3964 <___vfprintf_internal_r+0xf84>
    39a8:	9021883a 	mov	r16,r18
    39ac:	a825883a 	mov	r18,r21
    39b0:	b02b883a 	mov	r21,r22
    39b4:	882d883a 	mov	r22,r17
    39b8:	dc403017 	ldw	r17,192(sp)
    39bc:	d9002b17 	ldw	r4,172(sp)
    39c0:	1d87883a 	add	r3,r3,r22
    39c4:	10800044 	addi	r2,r2,1
    39c8:	41000015 	stw	r4,0(r8)
    39cc:	45800115 	stw	r22,4(r8)
    39d0:	d8c02015 	stw	r3,128(sp)
    39d4:	d8801f15 	stw	r2,124(sp)
    39d8:	010001c4 	movi	r4,7
    39dc:	20818e16 	blt	r4,r2,4018 <___vfprintf_internal_r+0x1638>
    39e0:	42000204 	addi	r8,r8,8
    39e4:	003e3106 	br	32ac <___vfprintf_internal_r+0x8cc>
    39e8:	d9403317 	ldw	r5,204(sp)
    39ec:	00800044 	movi	r2,1
    39f0:	18c00044 	addi	r3,r3,1
    39f4:	1141530e 	bge	r2,r5,3f44 <___vfprintf_internal_r+0x1564>
    39f8:	dc401f17 	ldw	r17,124(sp)
    39fc:	00800044 	movi	r2,1
    3a00:	40800115 	stw	r2,4(r8)
    3a04:	8c400044 	addi	r17,r17,1
    3a08:	44000015 	stw	r16,0(r8)
    3a0c:	d8c02015 	stw	r3,128(sp)
    3a10:	dc401f15 	stw	r17,124(sp)
    3a14:	008001c4 	movi	r2,7
    3a18:	14416b16 	blt	r2,r17,3fc8 <___vfprintf_internal_r+0x15e8>
    3a1c:	42000204 	addi	r8,r8,8
    3a20:	d8803717 	ldw	r2,220(sp)
    3a24:	d9003417 	ldw	r4,208(sp)
    3a28:	8c400044 	addi	r17,r17,1
    3a2c:	10c7883a 	add	r3,r2,r3
    3a30:	40800115 	stw	r2,4(r8)
    3a34:	41000015 	stw	r4,0(r8)
    3a38:	d8c02015 	stw	r3,128(sp)
    3a3c:	dc401f15 	stw	r17,124(sp)
    3a40:	008001c4 	movi	r2,7
    3a44:	14416916 	blt	r2,r17,3fec <___vfprintf_internal_r+0x160c>
    3a48:	45800204 	addi	r22,r8,8
    3a4c:	d9003617 	ldw	r4,216(sp)
    3a50:	d9403817 	ldw	r5,224(sp)
    3a54:	000d883a 	mov	r6,zero
    3a58:	000f883a 	mov	r7,zero
    3a5c:	d8c03c15 	stw	r3,240(sp)
    3a60:	000d2400 	call	d240 <__eqdf2>
    3a64:	d8c03c17 	ldw	r3,240(sp)
    3a68:	1000bc26 	beq	r2,zero,3d5c <___vfprintf_internal_r+0x137c>
    3a6c:	d9403317 	ldw	r5,204(sp)
    3a70:	84000044 	addi	r16,r16,1
    3a74:	8c400044 	addi	r17,r17,1
    3a78:	28bfffc4 	addi	r2,r5,-1
    3a7c:	1887883a 	add	r3,r3,r2
    3a80:	b0800115 	stw	r2,4(r22)
    3a84:	b4000015 	stw	r16,0(r22)
    3a88:	d8c02015 	stw	r3,128(sp)
    3a8c:	dc401f15 	stw	r17,124(sp)
    3a90:	008001c4 	movi	r2,7
    3a94:	14414316 	blt	r2,r17,3fa4 <___vfprintf_internal_r+0x15c4>
    3a98:	b5800204 	addi	r22,r22,8
    3a9c:	d9003a17 	ldw	r4,232(sp)
    3aa0:	df0022c4 	addi	fp,sp,139
    3aa4:	8c400044 	addi	r17,r17,1
    3aa8:	20c7883a 	add	r3,r4,r3
    3aac:	b7000015 	stw	fp,0(r22)
    3ab0:	b1000115 	stw	r4,4(r22)
    3ab4:	d8c02015 	stw	r3,128(sp)
    3ab8:	dc401f15 	stw	r17,124(sp)
    3abc:	008001c4 	movi	r2,7
    3ac0:	14400e16 	blt	r2,r17,3afc <___vfprintf_internal_r+0x111c>
    3ac4:	b2000204 	addi	r8,r22,8
    3ac8:	003e3a06 	br	33b4 <___vfprintf_internal_r+0x9d4>
    3acc:	01000074 	movhi	r4,1
    3ad0:	21059184 	addi	r4,r4,5702
    3ad4:	d9002b15 	stw	r4,172(sp)
    3ad8:	d9002b17 	ldw	r4,172(sp)
    3adc:	1c07883a 	add	r3,r3,r16
    3ae0:	44000115 	stw	r16,4(r8)
    3ae4:	41000015 	stw	r4,0(r8)
    3ae8:	10800044 	addi	r2,r2,1
    3aec:	d8c02015 	stw	r3,128(sp)
    3af0:	d8801f15 	stw	r2,124(sp)
    3af4:	010001c4 	movi	r4,7
    3af8:	20be2d0e 	bge	r4,r2,33b0 <___vfprintf_internal_r+0x9d0>
    3afc:	d9002c17 	ldw	r4,176(sp)
    3b00:	d9801e04 	addi	r6,sp,120
    3b04:	b80b883a 	mov	r5,r23
    3b08:	000977c0 	call	977c <__sprint_r>
    3b0c:	103cb61e 	bne	r2,zero,2de8 <___vfprintf_internal_r+0x408>
    3b10:	d8c02017 	ldw	r3,128(sp)
    3b14:	da000404 	addi	r8,sp,16
    3b18:	003e2606 	br	33b4 <___vfprintf_internal_r+0x9d4>
    3b1c:	d9002c17 	ldw	r4,176(sp)
    3b20:	d9801e04 	addi	r6,sp,120
    3b24:	b80b883a 	mov	r5,r23
    3b28:	000977c0 	call	977c <__sprint_r>
    3b2c:	103e5d26 	beq	r2,zero,34a4 <___vfprintf_internal_r+0xac4>
    3b30:	003cad06 	br	2de8 <___vfprintf_internal_r+0x408>
    3b34:	d9002c17 	ldw	r4,176(sp)
    3b38:	d9801e04 	addi	r6,sp,120
    3b3c:	b80b883a 	mov	r5,r23
    3b40:	000977c0 	call	977c <__sprint_r>
    3b44:	103ca81e 	bne	r2,zero,2de8 <___vfprintf_internal_r+0x408>
    3b48:	d8c02017 	ldw	r3,128(sp)
    3b4c:	da000404 	addi	r8,sp,16
    3b50:	003e0b06 	br	3380 <___vfprintf_internal_r+0x9a0>
    3b54:	d9002c17 	ldw	r4,176(sp)
    3b58:	d9801e04 	addi	r6,sp,120
    3b5c:	b80b883a 	mov	r5,r23
    3b60:	000977c0 	call	977c <__sprint_r>
    3b64:	103ca01e 	bne	r2,zero,2de8 <___vfprintf_internal_r+0x408>
    3b68:	d8c02017 	ldw	r3,128(sp)
    3b6c:	da000404 	addi	r8,sp,16
    3b70:	003dbd06 	br	3268 <___vfprintf_internal_r+0x888>
    3b74:	d9002c17 	ldw	r4,176(sp)
    3b78:	d9801e04 	addi	r6,sp,120
    3b7c:	b80b883a 	mov	r5,r23
    3b80:	000977c0 	call	977c <__sprint_r>
    3b84:	103c981e 	bne	r2,zero,2de8 <___vfprintf_internal_r+0x408>
    3b88:	d8c02017 	ldw	r3,128(sp)
    3b8c:	da000404 	addi	r8,sp,16
    3b90:	003dc306 	br	32a0 <___vfprintf_internal_r+0x8c0>
    3b94:	d8802917 	ldw	r2,164(sp)
    3b98:	d8002785 	stb	zero,158(sp)
    3b9c:	103f0616 	blt	r2,zero,37b8 <___vfprintf_internal_r+0xdd8>
    3ba0:	00ffdfc4 	movi	r3,-129
    3ba4:	9d84b03a 	or	r2,r19,r22
    3ba8:	90e4703a 	and	r18,r18,r3
    3bac:	103c6b26 	beq	r2,zero,2d5c <___vfprintf_internal_r+0x37c>
    3bb0:	0039883a 	mov	fp,zero
    3bb4:	003e7406 	br	3588 <___vfprintf_internal_r+0xba8>
    3bb8:	9080040c 	andi	r2,r18,16
    3bbc:	1001b326 	beq	r2,zero,428c <___vfprintf_internal_r+0x18ac>
    3bc0:	d9002d17 	ldw	r4,180(sp)
    3bc4:	d9402917 	ldw	r5,164(sp)
    3bc8:	d8002785 	stb	zero,158(sp)
    3bcc:	20800104 	addi	r2,r4,4
    3bd0:	24c00017 	ldw	r19,0(r4)
    3bd4:	002d883a 	mov	r22,zero
    3bd8:	2801b516 	blt	r5,zero,42b0 <___vfprintf_internal_r+0x18d0>
    3bdc:	00ffdfc4 	movi	r3,-129
    3be0:	d8802d15 	stw	r2,180(sp)
    3be4:	90e4703a 	and	r18,r18,r3
